CCS PCH C Compiler, Version 5.011, 32155               11-Dec-23 13:45

               Filename:   E:\TT Vi Xu Ly\Code\Chuong 9\bai_902_mt_abcd_xanh.lst

               ROM used:   2068 bytes (6%)
                           Largest free fragment is 30700
               RAM used:   306 (15%) at main() level
                           326 (16%) worst case
               Stack used: 4 locations
               Stack size: 31

*
0000:  GOTO   0758
.................... #include<tv_kit_vdk_pic_all.c> 
.................... //xxxxxxxxxxxxxxxxxxxxxxxxxxxxxxxxxxxxxxxxxxxxxxxxxxxxxxxx 
.................... //NGUYEN DINH PHU SU PHAM KY THUAT TP HCM 
.................... //xxxxxxxxxxxxxxxxxxxxxxxxxxxxxxxxxxxxxxxxxxxxxxxxxxxxxxxx 
.................... #include <tv_00_define_18f4550.c>                                            
.................... //xxxxxxxxxxxxxxxxxxxxxxxxxxxxxxxxxxxxxxxxxxxxxxxxxxxxxxxx 
.................... //NGUYEN DINH PHU SU PHAM KY THUAT TP HCM 
.................... //xxxxxxxxxxxxxxxxxxxxxxxxxxxxxxxxxxxxxxxxxxxxxxxxxxxxxxxx 
....................  
.................... //xxxxxxxxxxxxxxxxxxxxxxxxxxxxxxxxxxxxxxxxxxxxxxxxxxxxxxxx 
.................... //cau hinh vi dieu khien pic        
.................... //xxxxxxxxxxxxxxxxxxxxxxxxxxxxxxxxxxxxxxxxxxxxxxxxxxxxxxxx 
.................... #include <18f4550.h> 
.................... //////// Standard Header file for the PIC18F4550 device //////////////// 
.................... #device PIC18F4550 
0004:  CLRF   FF7
0006:  ADDLW  14
0008:  MOVWF  FF6
000A:  MOVLW  00
000C:  ADDWFC FF7,F
000E:  TBLRD*+
0010:  MOVF   FF5,W
0012:  RETURN 0
0014:  DATA 61,62
0016:  DATA 63,64
0018:  DATA 00,00
001A:  ADDLW  28
001C:  MOVWF  FF6
001E:  MOVLW  00
0020:  ADDWFC FF7,F
0022:  TBLRD*+
0024:  MOVF   FF5,W
0026:  RETURN 0
0028:  DATA 00,00
002A:  DATA 00,00
002C:  DATA 00,00
002E:  DATA 00,00
0030:  DATA 00,00
0032:  DATA 00,00
0034:  DATA 00,00
0036:  DATA 00,00
0038:  DATA 00,00
003A:  DATA 00,00
003C:  DATA 00,00
003E:  DATA 00,00
0040:  DATA 00,00
0042:  DATA 00,00
0044:  DATA 00,00
0046:  DATA 00,00
0048:  DATA 00,00
004A:  DATA 00,00
004C:  DATA 00,00
004E:  DATA 00,00
0050:  DATA 00,00
0052:  DATA 00,00
0054:  DATA 00,00
0056:  DATA 00,00
0058:  DATA 00,00
005A:  DATA 00,00
005C:  DATA 00,00
005E:  DATA 00,00
0060:  DATA 00,00
0062:  DATA 00,00
0064:  DATA 00,00
0066:  DATA 00,00
0068:  DATA 00,00
006A:  DATA 00,00
006C:  DATA 00,00
006E:  DATA 00,00
0070:  DATA 00,00
0072:  DATA 00,00
0074:  DATA 00,00
0076:  DATA 00,00
0078:  DATA 00,00
007A:  DATA 00,00
007C:  DATA 00,00
007E:  DATA 00,00
0080:  DATA 00,00
0082:  DATA 00,00
0084:  DATA 00,00
0086:  DATA 00,00
0088:  DATA 00,00
008A:  DATA 00,00
008C:  DATA 00,00
008E:  DATA 00,00
0090:  DATA 00,00
0092:  DATA 00,00
0094:  DATA 00,00
0096:  DATA 00,00
0098:  DATA 00,00
009A:  DATA 00,00
009C:  DATA 00,00
009E:  DATA 00,00
00A0:  DATA 00,00
00A2:  DATA 00,00
00A4:  DATA 00,00
00A6:  DATA 00,00
00A8:  DATA 00,00
00AA:  DATA 00,00
00AC:  DATA 00,00
00AE:  DATA 00,00
00B0:  DATA 00,00
00B2:  DATA 00,00
00B4:  DATA 00,00
00B6:  DATA 00,00
00B8:  DATA 00,00
00BA:  DATA 00,00
00BC:  DATA 00,00
00BE:  DATA 00,00
00C0:  DATA 00,00
00C2:  DATA 00,00
00C4:  DATA 00,00
00C6:  DATA 00,00
00C8:  DATA 00,00
00CA:  DATA 00,00
00CC:  DATA 00,00
00CE:  DATA 00,00
00D0:  DATA 00,00
00D2:  DATA 00,00
00D4:  DATA 00,00
00D6:  DATA 00,00
00D8:  DATA 00,00
00DA:  DATA 00,00
00DC:  DATA 00,00
00DE:  DATA 00,00
00E0:  DATA 00,00
00E2:  DATA 00,00
00E4:  DATA 00,00
00E6:  DATA 00,00
00E8:  DATA 00,00
00EA:  DATA 00,00
00EC:  DATA 00,00
00EE:  DATA 00,00
00F0:  DATA 7D,00
00F2:  DATA 00,00
00F4:  DATA 00,00
00F6:  DATA 78,00
00F8:  DATA 00,00
00FA:  DATA 14,7F
00FC:  DATA 14,7F
00FE:  DATA 14,00
0100:  DATA 24,52
0102:  DATA FF,4A
0104:  DATA 24,00
0106:  DATA 44,A8
0108:  DATA 52,25
010A:  DATA 42,00
010C:  DATA 36,49
010E:  DATA 55,22
0110:  DATA 05,00
0112:  DATA 00,00
0114:  DATA 50,60
0116:  DATA 00,00
0118:  DATA 00,1C
011A:  DATA 22,41
011C:  DATA 00,00
011E:  DATA 00,41
0120:  DATA 22,1C
0122:  DATA 00,00
0124:  DATA 14,08
0126:  DATA 3E,08
0128:  DATA 14,00
012A:  DATA 08,08
012C:  DATA 3E,08
012E:  DATA 08,00
0130:  DATA 00,09
0132:  DATA 0A,0C
0134:  DATA 00,00
0136:  DATA 08,08
0138:  DATA 08,08
013A:  DATA 08,00
013C:  DATA 00,03
013E:  DATA 03,00
0140:  DATA 00,00
0142:  DATA 02,04
0144:  DATA 08,10
0146:  DATA 20,00
0148:  DATA 3E,41
014A:  DATA 41,41
014C:  DATA 3E,00
014E:  DATA 11,21
0150:  DATA 7F,01
0152:  DATA 01,00
0154:  DATA 27,49
0156:  DATA 49,49
0158:  DATA 31,00
015A:  DATA 22,41
015C:  DATA 49,49
015E:  DATA 36,00
0160:  DATA 0C,14
0162:  DATA 24,7F
0164:  DATA 04,00
0166:  DATA 72,51
0168:  DATA 51,51
016A:  DATA 4E,00
016C:  DATA 3E,49
016E:  DATA 49,49
0170:  DATA 26,00
0172:  DATA 41,42
0174:  DATA 44,48
0176:  DATA 70,00
0178:  DATA 36,49
017A:  DATA 49,49
017C:  DATA 36,00
017E:  DATA 32,49
0180:  DATA 49,49
0182:  DATA 3E,00
0184:  DATA 00,66
0186:  DATA 66,00
0188:  DATA 00,00
018A:  DATA 00,69
018C:  DATA 6A,6C
018E:  DATA 00,00
0190:  DATA 08,14
0192:  DATA 22,41
0194:  DATA 00,00
0196:  DATA 14,14
0198:  DATA 14,14
019A:  DATA 14,00
019C:  DATA 41,22
019E:  DATA 14,08
01A0:  DATA 00,00
01A2:  DATA 20,40
01A4:  DATA 45,48
01A6:  DATA 30,00
01A8:  DATA 26,49
01AA:  DATA 4F,41
01AC:  DATA 3E,00
01AE:  DATA 1F,24
01B0:  DATA 44,24
01B2:  DATA 1F,00
01B4:  DATA 7F,49
01B6:  DATA 49,49
01B8:  DATA 36,00
01BA:  DATA 3E,41
01BC:  DATA 41,41
01BE:  DATA 22,00
01C0:  DATA 7F,41
01C2:  DATA 41,41
01C4:  DATA 3E,00
01C6:  DATA 3E,49
01C8:  DATA 49,41
01CA:  DATA 22,00
01CC:  DATA 7F,48
01CE:  DATA 48,48
01D0:  DATA 40,00
01D2:  DATA 3E,41
01D4:  DATA 49,49
01D6:  DATA 2E,00
01D8:  DATA 7F,08
01DA:  DATA 08,08
01DC:  DATA 7F,00
01DE:  DATA 41,41
01E0:  DATA 7F,41
01E2:  DATA 41,00
01E4:  DATA 42,41
01E6:  DATA 7E,40
01E8:  DATA 40,00
01EA:  DATA 7F,08
01EC:  DATA 14,22
01EE:  DATA 41,00
01F0:  DATA 7F,01
01F2:  DATA 01,01
01F4:  DATA 02,00
01F6:  DATA 7F,20
01F8:  DATA 10,20
01FA:  DATA 7F,00
01FC:  DATA 7F,20
01FE:  DATA 10,08
0200:  DATA 7F,00
0202:  DATA 3E,41
0204:  DATA 41,41
0206:  DATA 3E,00
0208:  DATA 3F,48
020A:  DATA 48,48
020C:  DATA 30,00
020E:  DATA 3E,41
0210:  DATA 45,43
0212:  DATA 3E,00
0214:  DATA 3F,48
0216:  DATA 4C,4A
0218:  DATA 31,00
021A:  DATA 32,49
021C:  DATA 49,49
021E:  DATA 26,00
0220:  DATA 60,40
0222:  DATA 7F,40
0224:  DATA 60,00
0226:  DATA 7E,01
0228:  DATA 01,01
022A:  DATA 7E,00
022C:  DATA 7C,02
022E:  DATA 01,02
0230:  DATA 7C,00
0232:  DATA 7E,01
0234:  DATA 06,01
0236:  DATA 7E,00
0238:  DATA 41,22
023A:  DATA 1C,22
023C:  DATA 41,00
023E:  DATA 70,08
0240:  DATA 07,08
0242:  DATA 70,00
0244:  DATA 63,45
0246:  DATA 49,51
0248:  DATA 63,00
024A:  DATA 00,7F
024C:  DATA 41,41
024E:  DATA 00,00
0250:  DATA 54,34
0252:  DATA 1F,34
0254:  DATA 54,00
0256:  DATA 00,41
0258:  DATA 41,7F
025A:  DATA 00,00
025C:  DATA 10,20
025E:  DATA 40,20
0260:  DATA 10,00
0262:  DATA 01,01
0264:  DATA 01,01
0266:  DATA 01,00
0268:  DATA 00,40
026A:  DATA 20,10
026C:  DATA 00,00
026E:  DATA 12,15
0270:  DATA 15,15
0272:  DATA 0F,00
0274:  DATA 7F,09
0276:  DATA 11,11
0278:  DATA 0E,00
027A:  DATA 0E,11
027C:  DATA 11,11
027E:  DATA 02,00
0280:  DATA 0E,11
0282:  DATA 11,09
0284:  DATA 7F,00
0286:  DATA 0E,15
0288:  DATA 15,15
028A:  DATA 0C,00
028C:  DATA 08,3F
028E:  DATA 48,40
0290:  DATA 20,00
0292:  DATA 18,25
0294:  DATA 25,25
0296:  DATA 3E,00
0298:  DATA 7F,08
029A:  DATA 10,10
029C:  DATA 0F,00
029E:  DATA 00,11
02A0:  DATA 5F,01
02A2:  DATA 00,00
02A4:  DATA 02,01
02A6:  DATA 11,5E
02A8:  DATA 00,00
02AA:  DATA 7F,04
02AC:  DATA 0A,11
02AE:  DATA 00,00
02B0:  DATA 00,41
02B2:  DATA 7F,01
02B4:  DATA 00,00
02B6:  DATA 1F,10
02B8:  DATA 0C,10
02BA:  DATA 0F,00
02BC:  DATA 3F,10
02BE:  DATA 20,20
02C0:  DATA 1F,00
02C2:  DATA 0E,11
02C4:  DATA 11,11
02C6:  DATA 0E,00
02C8:  DATA 3F,28
02CA:  DATA 28,28
02CC:  DATA 10,00
02CE:  DATA 10,28
02D0:  DATA 28,28
02D2:  DATA 3F,00
02D4:  DATA 3F,10
02D6:  DATA 20,20
02D8:  DATA 10,00
02DA:  DATA 09,15
02DC:  DATA 15,15
02DE:  DATA 02,00
02E0:  DATA 10,7E
02E2:  DATA 11,02
02E4:  DATA 00,00
02E6:  DATA 1E,01
02E8:  DATA 01,02
02EA:  DATA 1F,00
02EC:  DATA 1C,02
02EE:  DATA 01,02
02F0:  DATA 1C,00
02F2:  DATA 1E,01
02F4:  DATA 02,01
02F6:  DATA 1E,00
02F8:  DATA 11,0A
02FA:  DATA 04,0A
02FC:  DATA 11,00
02FE:  DATA 18,05
0300:  DATA 05,05
0302:  DATA 1E,00
0304:  DATA 11,13
0306:  DATA 15,19
0308:  DATA 11,00
030A:  DATA 00,08
030C:  DATA 36,41
030E:  DATA 00,00
0310:  DATA 00,00
0312:  DATA FF,00
0314:  DATA 00,00
0316:  DATA 00,41
0318:  DATA 36,08
031A:  DATA 00,00
031C:  DATA 08,08
031E:  DATA 2A,1C
0320:  DATA 08,00
0322:  DATA 08,1C
0324:  DATA 2A,08
0326:  DATA 08,00
0328:  CLRF   FF7
032A:  ADDLW  38
032C:  MOVWF  FF6
032E:  MOVLW  03
0330:  ADDWFC FF7,F
0332:  TBLRD*+
0334:  MOVF   FF5,W
0336:  RETURN 0
0338:  DATA 00,01
033A:  DATA 00,04
033C:  DATA 00,10
033E:  DATA 00,40
0340:  DATA 80,00
0342:  DATA 20,00
0344:  DATA 08,00
0346:  DATA 02,00
0348:  DATA 2E,00
034A:  DATA 2E,00
034C:  DATA 2E,00
034E:  DATA 4E,4F
0350:  DATA 20,44
0352:  DATA 48,54
0354:  DATA 31,31
0356:  DATA 00,00
0358:  DATA 44,4F
035A:  DATA 43,20
035C:  DATA 53,41
035E:  DATA 49,20
0360:  DATA 44,55
0362:  DATA 20,4C
0364:  DATA 49,45
0366:  DATA 55,20
0368:  DATA 44,48
036A:  DATA 54,31
036C:  DATA 31,00
036E:  DATA 4E,4F
0370:  DATA 20,44
0372:  DATA 53,31
0374:  DATA 38,42
0376:  DATA 32,30
0378:  DATA 00,00
*
048C:  MOVLB  1
048E:  MOVF   x39,W
0490:  MULWF  x3B
0492:  MOVFF  FF3,01
0496:  MOVFF  FF4,00
049A:  MULWF  x3C
049C:  MOVF   FF3,W
049E:  ADDWF  00,F
04A0:  MOVF   x3A,W
04A2:  MULWF  x3B
04A4:  MOVF   FF3,W
04A6:  ADDWFC 00,W
04A8:  MOVWF  02
04AA:  MOVLB  0
04AC:  GOTO   0532 (RETURN)
....................  
.................... #list 
....................  
.................... #device  adc=10 
.................... #fuses   nowdt,put,hs,noprotect,nolvp,cpudiv1,NOUSBDIV,     
.................... #use     delay(clock=20000000)                                                       
.................... #use     i2c(master,slow,sda=pin_b0,scl=pin_b1)       
.................... #use     rs232(baud=9600, xmit=pin_c6,rcv=pin_c7)     
.................... //xxxxxxxxxxxxxxxxxxxxxxxxxxxxxxxxxxxxxxxxxxxxxxxxxxxxxxxx    
.................... //dinh nghia lai ten cac kieu du lieu cho gon 
.................... //xxxxxxxxxxxxxxxxxxxxxxxxxxxxxxxxxxxxxxxxxxxxxxxxxxxxxxxx 
.................... #define usi8  unsigned int8      
.................... #define usi16 unsigned int16                           
.................... #define usi32 unsigned int32                                                                     
.................... #define si8   signed   int8                                 
.................... #define si16  signed   int16  
.................... #define si32  signed   int32 
.................... //xxxxxxxxxxxxxxxxxxxxxxxxxxxxxxxxxxxxxxxxxxxxxxxxxxxxxxxx 
.................... //dinh nghia 1 so tu thuong dung 
.................... //xxxxxxxxxxxxxxxxxxxxxxxxxxxxxxxxxxxxxxxxxxxxxxxxxxxxxxxx 
.................... #define co_reset true 
.................... #define no_reset false  
....................  
.................... #define tt_on    1           
.................... #define tt_off   0                     
.................... #define enable   1                         
.................... #define disable  0 
.................... #define sang     1           
.................... #define tat      0   
.................... #define tat_l7d  0xff      
.................... #define cx_vn    true     //co xoa so 0 vo nghia         
.................... #define kx_vn    false    //khong xoa so 0 vo nghia           
.................... #define co_fill  true 
.................... #define no_fill  false  
.................... #define c_reset  1           
.................... #define k_reset  0                                          
.................... //xxxxxxxxxxxxxxxxxxxxxxxxxxxxxxxxxxxxxxxxxxxxxxxxxxxxxxxx 
.................... //dinh nghia ten cho 4 nut nhan  
.................... //xxxxxxxxxxxxxxxxxxxxxxxxxxxxxxxxxxxxxxxxxxxxxxxxxxxxxxxx 
.................... #ifndef bt0 
.................... #define bt0    pin_b5 
.................... #endif  
....................  
.................... #ifndef bt1     
.................... #define bt1    pin_b4 
.................... #endif  
....................                    
.................... #ifndef bt2     
.................... #define bt2    pin_b3 
.................... #endif  
....................  
.................... #ifndef bt3 
.................... #define bt3    pin_b2 
.................... #endif  
....................  
.................... #define on     bt0    //dk led don, motor  
.................... #define off    bt1 
.................... #define inv    bt2 
....................                                 
.................... #define up     bt0    //dk led don 
.................... #define mod    bt1 
.................... #define dw     bt2 
.................... #define clr    bt3 
....................  
.................... #define stop   bt1 
....................  
.................... #define on1    bt0      
.................... #define off1   bt1 
.................... #define on2    bt2        
.................... #define off2   bt3              
.................... //xxxxxxxxxxxxxxxxxxxxxxxxxxxxxxxxxxxxxxxxxxxxxxxxxxxxxxxx   
.................... //dinh nghia port giao tiep cam bien sieu am hcsr-04  
.................... //xxxxxxxxxxxxxxxxxxxxxxxxxxxxxxxxxxxxxxxxxxxxxxxxxxxxxxxx   
.................... #define trig   pin_e1            
.................... #define echo   pin_a3                  
.................... //xxxxxxxxxxxxxxxxxxxxxxxxxxxxxxxxxxxxxxxxxxxxxxxxxxxxxxxx   
.................... //dinh nghia port giao tiep CB nhiet va do am 1 day DHT11    
.................... //xxxxxxxxxxxxxxxxxxxxxxxxxxxxxxxxxxxxxxxxxxxxxxxxxxxxxxxx   
.................... #define dht11 pin_d1 
.................... //xxxxxxxxxxxxxxxxxxxxxxxxxxxxxxxxxxxxxxxxxxxxxxxxxxxxxxxx   
.................... //dinh nghia port giao tiep noi tiep 6 module 
.................... //xxxxxxxxxxxxxxxxxxxxxxxxxxxxxxxxxxxxxxxxxxxxxxxxxxxxxxxx                                        
.................... #define ssdo      pin_e2          
.................... #define ssck      pin_e0          
....................  
.................... #define rck_mtl   pin_d7 
.................... #define rck_4l7d  pin_d6           
.................... #define rck_8l7dq pin_d5         
.................... #define rck_32led pin_d4 
.................... #define rck_rlb   pin_d3              
.................... #define rck_lcd   pin_d2          
....................  
.................... #define g_all     pin_d0           
....................   
.................... //xxxxxxxxxxxxxxxxxxxxxxxxxxxxxxxxxxxxxxxxxxxxxxxxxxxxxxxx  
.................... //khai bao  module relay, triac, buzzer, dong co 
.................... //xxxxxxxxxxxxxxxxxxxxxxxxxxxxxxxxxxxxxxxxxxxxxxxxxxxxxxxx  
.................... unsigned int16 rbdc;                           
.................... #bit step_motor_enable = rbdc.0     
.................... #bit step_motor_in1    = rbdc.1     
.................... #bit step_motor_in2    = rbdc.2 
.................... #bit step_motor_in3    = rbdc.3 
.................... #bit step_motor_in4    = rbdc.4 
.................... #bit dc_enable         = rbdc.5     
.................... #bit pwrkey            = rbdc.6     
....................  
.................... #bit buzzer            = rbdc.8    //1=on,0=off 
.................... #bit triac_1           = rbdc.9    //1=on,0=off 
.................... #bit triac_2           = rbdc.10   //1=on,0=off 
.................... #bit relay_1           = rbdc.11   //0=on,1=off 
.................... #bit relay_2           = rbdc.12   //0=on,1=off       
....................  
.................... //xxxxxxxxxxxxxxxxxxxxxxxxxxxxxxxxxxxxxxxxxxxxxxxxxxxxxxxx  
.................... //Khai bao mang chua 16 ma 7 doan tu 0 den F 
.................... //xxxxxxxxxxxxxxxxxxxxxxxxxxxxxxxxxxxxxxxxxxxxxxxxxxxxxxxx   
.................... const unsigned char ma7doan[16]= { 
....................    0xc0,0xf9,0xa4,0xb0,0x99,0x92,0x82,0xf8,         
....................    0x80,0x90,0x88,0x83,0xc6,0xa1,0x86,0x8e}; 
.................... #define     maso0    0xc0 
....................  
.................... //xxxxxxxxxxxxxxxxxxxxxxxxxxxxxxxxxxxxxxxxxxxxxxxxxxxxxxxx  
.................... //ham 102: xuat 1 byte ra thanh ghi dich 
.................... //xxxxxxxxxxxxxxxxxxxxxxxxxxxxxxxxxxxxxxxxxxxxxxxxxxxxxxxx     
.................... void xuat_1byte(unsigned int8 x) 
.................... { 
....................    unsigned int8   sb;    
....................    #bit msb  = x.7;   
....................    for (sb=0;sb<8;sb++) 
*
037A:  MOVLB  1
037C:  CLRF   x37
037E:  MOVF   x37,W
0380:  SUBLW  07
0382:  BNC   03A0
....................    {                                                  
....................       output_bit(ssdo,msb);     
0384:  BTFSC  x36.7
0386:  BRA    038C
0388:  BCF    F8D.2
038A:  BRA    038E
038C:  BSF    F8D.2
038E:  BCF    F96.2
....................       output_low(ssck); output_high(ssck); 
0390:  BCF    F96.0
0392:  BCF    F8D.0
0394:  BCF    F96.0
0396:  BSF    F8D.0
....................       x= x<<1;          
0398:  BCF    FD8.0
039A:  RLCF   x36,F
039C:  INCF   x37,F
039E:  BRA    037E
....................    } 
03A0:  MOVLB  0
03A2:  RETURN 0
.................... }  
.................... //xxxxxxxxxxxxxxxxxxxxxxxxxxxxxxxxxxxxxxxxxxxxxxxxxxxxxxxx     
.................... //ham 103: xuat 1 word ra thanh ghi dich 
.................... //xxxxxxxxxxxxxxxxxxxxxxxxxxxxxxxxxxxxxxxxxxxxxxxxxxxxxxxx     
.................... void xuat_1word(unsigned int16 w) 
.................... {   
....................    unsigned int8 b1,b0; 
....................    b1 = w>>8; b0 = w; 
03A4:  MOVFF  133,134
03A8:  MOVFF  132,135
....................    xuat_1byte(b1);     
03AC:  MOVFF  134,136
03B0:  RCALL  037A
....................    xuat_1byte(b0); 
03B2:  MOVFF  135,136
03B6:  RCALL  037A
03B8:  RETURN 0
.................... }    
....................                                 
.................... //xxxxxxxxxxxxxxxxxxxxxxxxxxxxxxxxxxxxxxxxxxxxxxxxxxxxxxxx      
.................... //ham 104: xoa cac module  
.................... //xxxxxxxxxxxxxxxxxxxxxxxxxxxxxxxxxxxxxxxxxxxxxxxxxxxxxxxx   
.................... void xoa_tat_6module()                           
.................... {                                                                                               
....................    xuat_1word(0);                              
03BA:  MOVLB  1
03BC:  CLRF   x33
03BE:  CLRF   x32
03C0:  MOVLB  0
03C2:  RCALL  03A4
....................    xuat_1word(0);  
03C4:  MOVLB  1
03C6:  CLRF   x33
03C8:  CLRF   x32
03CA:  MOVLB  0
03CC:  RCALL  03A4
....................    xuat_1word(0);                              
03CE:  MOVLB  1
03D0:  CLRF   x33
03D2:  CLRF   x32
03D4:  MOVLB  0
03D6:  RCALL  03A4
....................    xuat_1word(0);                                     
03D8:  MOVLB  1
03DA:  CLRF   x33
03DC:  CLRF   x32
03DE:  MOVLB  0
03E0:  RCALL  03A4
....................     
....................    output_high(rck_rlb);    
03E2:  BCF    F95.3
03E4:  BSF    F8C.3
....................    output_low(rck_rlb); 
03E6:  BCF    F95.3
03E8:  BCF    F8C.3
....................     
....................    output_high(rck_32led); 
03EA:  BCF    F95.4
03EC:  BSF    F8C.4
....................    output_low(rck_32led);  
03EE:  BCF    F95.4
03F0:  BCF    F8C.4
....................     
....................    output_high(rck_8l7dq);    
03F2:  BCF    F95.5
03F4:  BSF    F8C.5
....................    output_low(rck_8l7dq);    
03F6:  BCF    F95.5
03F8:  BCF    F8C.5
....................                                   
....................    output_high(rck_mtl);           
03FA:  BCF    F95.7
03FC:  BSF    F8C.7
....................    output_low(rck_mtl);    
03FE:  BCF    F95.7
0400:  BCF    F8C.7
....................                             
....................    output_high(rck_lcd);    
0402:  BCF    F95.2
0404:  BSF    F8C.2
....................    output_low(rck_lcd);       
0406:  BCF    F95.2
0408:  BCF    F8C.2
....................                                                                            
....................    xuat_1word(0xffff);  
040A:  MOVLB  1
040C:  SETF   x33
040E:  SETF   x32
0410:  MOVLB  0
0412:  RCALL  03A4
....................    xuat_1word(0xffff);  
0414:  MOVLB  1
0416:  SETF   x33
0418:  SETF   x32
041A:  MOVLB  0
041C:  RCALL  03A4
....................    output_high(rck_4l7d);        
041E:  BCF    F95.6
0420:  BSF    F8C.6
....................    output_low(rck_4l7d);                                                                       
0422:  BCF    F95.6
0424:  BCF    F8C.6
0426:  GOTO   0442 (RETURN)
.................... }              
....................  
.................... //xxxxxxxxxxxxxxxxxxxxxxxxxxxxxxxxxxxxxxxxxxxx     
.................... //ham 101: ham khoi tao cac port va ic chot 
.................... //xxxxxxxxxxxxxxxxxxxxxxxxxxxxxxxxxxxxxxxxxxxx     
.................... void set_up_port()                                   
.................... {                             
....................    set_tris_a(0xff);    set_tris_b(0x3c);                                                    
042A:  MOVLW  FF
042C:  MOVWF  F92
042E:  MOVLW  3C
0430:  MOVWF  F93
....................    set_tris_c(0xf1);    set_tris_e(0x00);                                                
0432:  MOVLW  F1
0434:  MOVWF  F94
0436:  MOVLW  00
0438:  MOVWF  F96
....................    set_tris_d(0x00);     
043A:  MOVWF  F95
....................    output_d(0x00);  
043C:  CLRF   F95
043E:  CLRF   F8C
....................    xoa_tat_6module(); 
0440:  BRA    03BA
....................    port_b_pullups(0xff);           
0442:  BCF    FF1.7
....................    rbdc=0;                
0444:  CLRF   05
0446:  CLRF   04
....................              
....................    setup_adc(adc_clock_div_32);         
0448:  MOVF   FC0,W
044A:  ANDLW  C0
044C:  IORLW  02
044E:  MOVWF  FC0
0450:  BSF    FC0.7
0452:  BSF    FC2.0
....................    setup_adc_ports(an0_to_an2|vss_vdd);  
0454:  MOVF   FC1,W
0456:  ANDLW  C0
0458:  IORLW  0C
045A:  MOVWF  FC1
....................    output_low(g_all);         
045C:  BCF    F95.0
045E:  BCF    F8C.0
0460:  GOTO   07FC (RETURN)
.................... } 
....................  //xxxxxxxxxxxxxxxxxxxxxxxxxxxxxxxxxxxxxxxxxxxxxxxxxxxxxxxx      
.................... //xuat 1 bit roi tra lai ket qua sau khi dich di 1 bit 
.................... //xxxxxxxxxxxxxxxxxxxxxxxxxxxxxxxxxxxxxxxxxxxxxxxxxxxxxxxx     
.................... unsigned  int8 xuat_1bit(usi8 bx) 
.................... {   
....................    #bit lsb = bx.0                                            
....................    output_bit(ssdo,lsb);     
....................    output_low(ssck); output_high(ssck); 
....................    bx = bx>>1;    
....................    return(bx);   
.................... }    
....................  
....................                                  
....................  
.................... #include <tv_01_4_nutnhan.c>            
.................... //xxxxxxxxxxxxxxxxxxxxxxxxxxxxxxxxxxxxxxxxxxxxxxxxxxxxxxxx 
.................... //NGUYEN DINH PHU SU PHAM KY THUAT TP HCM 
.................... //xxxxxxxxxxxxxxxxxxxxxxxxxxxxxxxxxxxxxxxxxxxxxxxxxxxxxxxx 
....................  
.................... //xxxxxxxxxxxxxxxxxxxxxxxxxxxxxxxxxxxxxxxxxxxxxxxxxxxxxxxx 
.................... //dinh nghia cac trang thai co nhan va khong nhan phim 
.................... //xxxxxxxxxxxxxxxxxxxxxxxxxxxxxxxxxxxxxxxxxxxxxxxxxxxxxxxx  
.................... #define co_nhan      1             
.................... #define khong_nhan   0            
.................... #define c_ktnp       1  //co kiem tra nha phim           
.................... #define k_ktnp       0  //khong kiem tra nha phim  
.................... // #define sole_1       false             
.................... // #define sole_2       true    
....................                                
.................... //xxxxxxxxxxxxxxxxxxxxxxxxxxxxxxxxxxxxxxxxxxxxxxxxxxxxxxxx  
.................... //chuong trinh kiem tra phim bt1 
.................... //xxxxxxxxxxxxxxxxxxxxxxxxxxxxxxxxxxxxxxxxxxxxxxxxxxxxxxxx  
.................... unsigned int16 dl_btn=0;  
.................... //xxxxxxxxxxxxxxxxxxxxxxxxxxxxxxxxxxxxxxxxxxxxxxxxxxxxxxxx 
.................... //phim bt0-cach 1: co chong doi, delay 20ms, cho nha phim 
.................... //dinh nghia them 1 so ten khac      
.................... //xxxxxxxxxxxxxxxxxxxxxxxxxxxxxxxxxxxxxxxxxxxxxxxxxxxxxxxx                        
.................... #define phim_on_c1  phim_bt0_c1     
.................... #define phim_run_c1 phim_bt0_c1  
.................... #define phim_up_c1  phim_bt0_c1        
....................  
.................... int1 phim_bt0_c1(int1 ktnp,usi16 dl)    
.................... {                     
....................    if (!input(bt0))    
....................    {         
....................       delay_ms(20);                                      
....................       if (!input(bt0)) 
....................       { 
....................          if(ktnp) while(!input(bt0)); 
....................          delay_ms(dl); 
....................          return co_nhan;       
....................       }                       
....................       return khong_nhan;    
....................    }          
....................   return khong_nhan;   
.................... }      
.................... //xxxxxxxxxxxxxxxxxxxxxxxxxxxxxxxxxxxxxxxxxxxxxxxxxxxxxxxx 
.................... //phim bt1-cach 1: co chong doi, delay 20ms, cho nha phim 
.................... //dinh nghia them 1 so ten khac       
.................... //xxxxxxxxxxxxxxxxxxxxxxxxxxxxxxxxxxxxxxxxxxxxxxxxxxxxxxxx   
.................... #define phim_off_c1   phim_bt1_c1    
.................... #define phim_mode_c1  phim_bt1_c1  
.................... #define phim_stop_c1  phim_bt1_c1  
.................... #define phim_clr_c1   phim_bt1_c1 
.................... int1 phim_bt1_c1(int1 ktnp,usi16 dl)                                                
.................... { 
....................    if(!input(bt1))    
....................    {                        
....................       delay_ms(20); 
....................       if(!input(bt1)) 
....................       { 
....................          if(ktnp) while(!input(bt1));     
....................          delay_ms(dl); 
....................          return co_nhan; 
....................       }  
....................       return khong_nhan; 
....................    } 
....................    return khong_nhan;   
.................... }        
....................       
.................... //xxxxxxxxxxxxxxxxxxxxxxxxxxxxxxxxxxxxxxxxxxxxxxxxxxxxxxxx 
.................... //phim bt2-cach 1: co chong doi, delay 20ms, cho nha phim 
.................... //dinh nghia them 1 so ten khac       
.................... //xxxxxxxxxxxxxxxxxxxxxxxxxxxxxxxxxxxxxxxxxxxxxxxxxxxxxxxx   
.................... #define phim_inv_c1 phim_bt2_c1    
.................... #define phim_dw_c1  phim_bt2_c1                   
....................  
.................... int1 phim_bt2_c1(int1 ktnp,usi16 dl)       
.................... { 
....................    if(!input(bt2))    
....................    {         
....................       delay_ms(20);                 
....................       if(!input(bt2)) 
....................       { 
....................          if(ktnp) while(!input(bt2));     
....................          delay_ms(dl); 
....................          return co_nhan; 
....................       }                                      
....................       return khong_nhan;  
....................    } 
....................    return khong_nhan;   
.................... }       
.................... //xxxxxxxxxxxxxxxxxxxxxxxxxxxxxxxxxxxxxxxxxxxxxxxxxxxxxxxx 
.................... //phim bt3-cach 1: co chong doi, delay 20ms, cho nha phim 
.................... //dinh nghia them 1 so ten khac       
.................... //xxxxxxxxxxxxxxxxxxxxxxxxxxxxxxxxxxxxxxxxxxxxxxxxxxxxxxxx      
....................  
.................... #define phim_ud_c1    phim_bt3_c1 
....................  
....................  
.................... int1 phim_bt3_c1(int1 ktnp,usi16 dl)       
.................... {                        
....................    if(!input(bt3))    
....................    {                                         
....................       delay_ms(20);                        
....................       if(!input(bt3)) 
....................       {                       
....................          if(ktnp) while(!input(bt3));     
....................          delay_ms(dl); 
....................          return co_nhan; 
....................       }  
....................       return khong_nhan;    
....................       }                        
....................    return khong_nhan;   
.................... }   
....................        
.................... //xxxxxxxxxxxxxxxxxxxxxxxxxxxxxxxxxxxxxxxxxxxxxxxxxxxxxxxx  
.................... //xxxxxxxxxxxxxxxxxxxxxxxxxxxxxxxxxxxxxxxxxxxxxxxxxxxxxxxx  
.................... //cac ham con cua cac phim nhan don theo cach 2 
.................... //xxxxxxxxxxxxxxxxxxxxxxxxxxxxxxxxxxxxxxxxxxxxxxxxxxxxxxxx  
.................... //xxxxxxxxxxxxxxxxxxxxxxxxxxxxxxxxxxxxxxxxxxxxxxxxxxxxxxxx     
....................  
.................... //xxxxxxxxxxxxxxxxxxxxxxxxxxxxxxxxxxxxxxxxxxxxxxxxxxxxxxxx   
.................... //phim bt0-cach 2: nhan so lan thuc hien la bien dl 
.................... //kiem tra neu co nhan thi tang bien dem dl_btn,delay 1ms.    
.................... //Neu bien dl_btn = dl thi reset dl_btn = 0, 
.................... //xem nhu co nhan va ket thuc.  
.................... //con lai thi xem nhu chua nhan hoac chua du thoi gian nhan 
.................... //moi chu ky thuc hien lon nhat la 1ms - khong cho nha phim  
.................... //dinh nghia them 1 so ten khac   
.................... //xxxxxxxxxxxxxxxxxxxxxxxxxxxxxxxxxxxxxxxxxxxxxxxxxxxxxxxx     
.................... #define phim_on_c2  phim_bt0_c2                     
.................... #define phim_run_c2 phim_bt0_c2       
.................... #define phim_up_c2  phim_bt0_c2   
....................  
.................... int1 phim_bt0_c2(usi16 dl)   
.................... {                       
....................    if(!input(bt0))                        
....................    {    
....................       dl_btn++;   delay_us(500);                
....................       if(dl_btn>=dl)  
....................       {   
....................          dl_btn=0; 
....................          return co_nhan; 
....................       }      
....................       else  return khong_nhan;  
....................    } 
....................    else  return khong_nhan;     
.................... }  
....................      
.................... //xxxxxxxxxxxxxxxxxxxxxxxxxxxxxxxxxxxxxxxxxxxxxxxxxxxxxxxx 
.................... //ham chong doi cach 2 cho phim bt1 
.................... //xxxxxxxxxxxxxxxxxxxxxxxxxxxxxxxxxxxxxxxxxxxxxxxxxxxxxxxx       
.................... #define phim_off_c2   phim_bt1_c2    
.................... #define phim_stop_c2  phim_bt1_c2   
.................... #define phim_mode_c2  phim_bt1_c2 
.................... #define phim_clr_c2   phim_bt3_c2 
....................  
.................... int1 phim_bt1_c2(usi16 dl) 
.................... {                       
....................    if(!input(bt1))    
....................    {            
....................       dl_btn++;  delay_us(500);   
....................       if(dl_btn >= dl)     
....................       {   
....................          dl_btn =0; 
....................          return co_nhan; 
....................       }      
....................       else return khong_nhan;  
....................    } 
....................    else return khong_nhan;     
.................... }      
....................  
.................... //xxxxxxxxxxxxxxxxxxxxxxxxxxxxxxxxxxxxxxxxxxxxxxxxxxxxxxxx 
.................... //ham chong doi cach 2 cho phim bt2 
.................... //xxxxxxxxxxxxxxxxxxxxxxxxxxxxxxxxxxxxxxxxxxxxxxxxxxxxxxxx 
.................... #define phim_inv_c2   phim_bt2_c2   
.................... #define phim_dw_c2    phim_bt2_c2   
....................  
.................... int1 phim_bt2_c2(usi16 dl) 
.................... {                       
....................    if(!input(bt2))    
....................    {                                   
....................       dl_btn++;  delay_us(500);   
....................       if(dl_btn >= dl)  
....................       {   
....................          dl_btn =0; 
....................          return co_nhan;    
....................       }      
....................       else return khong_nhan;  
....................    } 
....................    else return khong_nhan;     
.................... }                                        
.................... //xxxxxxxxxxxxxxxxxxxxxxxxxxxxxxxxxxxxxxxxxxxxxxxxxxxxxxxx 
.................... //ham chong doi cach 1 cho phim bt3 
.................... //xxxxxxxxxxxxxxxxxxxxxxxxxxxxxxxxxxxxxxxxxxxxxxxxxxxxxxxx         
.................... //#define phim_mode_c2  phim_bt3_c2   
.................... #define phim_ud_c2    phim_bt3_c2   
....................                           
.................... int1 phim_bt3_c2(usi16 dl)  
.................... {                       
....................    if(!input(bt3))     
....................    {                          
....................       dl_btn++;    delay_us(500);                                                 
....................       if(dl_btn >= dl)  
....................       {   
....................          dl_btn =0;                                  
....................          return co_nhan;  
....................       }      
....................       else return khong_nhan;  
....................    } 
....................    else return khong_nhan;     
.................... }            
....................  
.................... #include <tv_02_matran_phim4x4_138.c>     
.................... //xxxxxxxxxxxxxxxxxxxxxxxxxxxxxxxxxxxxxxxxxxxxxxxxxxxxxxxx 
.................... //NGUYEN DINH PHU SU PHAM KY THUAT TP HCM 
.................... //xxxxxxxxxxxxxxxxxxxxxxxxxxxxxxxxxxxxxxxxxxxxxxxxxxxxxxxx 
....................  
.................... const unsigned char maquet[4]= {0x3f,0x7f,0xbf,0xff}; 
.................... //xxxxxxxxxxxxxxxxxxxxxxxxxxxxxxxxxxxxxxxxxxxxxxxxxxxxxxxx 
.................... //ham quet phim ma tran 4x4                  
.................... //xxxxxxxxxxxxxxxxxxxxxxxxxxxxxxxxxxxxxxxxxxxxxxxxxxxxxxxx 
.................... unsigned int key_nhan()                
.................... {      
....................    unsigned int8 maphim,hang,cot;       
....................    maphim=hang=0xff; 
....................    for(cot=0;cot<4;cot++)                     
....................    {    
....................       output_b(maquet[cot]); 
....................       if     (!input(pin_b2)) {hang=3; break;} 
....................       else if(!input(pin_b3)) {hang=2; break;}        
....................       else if(!input(pin_b4)) {hang=1; break;} 
....................       else if(!input(pin_b5)) {hang=0; break;} 
....................    }           
....................    if(hang!=0xff) maphim = cot*4 + hang; 
....................    return(maphim); 
.................... }      
.................... //xxxxxxxxxxxxxxxxxxxxxxxxxxxxxxxxxxxxxxxxxxxxxxxxxxxxxxxx 
.................... //ham quet ma tran phim va chong doi tich cuc khi nhan phim 
.................... //cach 1              
.................... //xxxxxxxxxxxxxxxxxxxxxxxxxxxxxxxxxxxxxxxxxxxxxxxxxxxxxxxx                         
.................... unsigned int key_4x4_dw() 
.................... {      
....................    unsigned int8 mp1, mp2;   
....................    mp1=key_nhan();       
....................    if(mp1!=0xff)                 
....................    {   
....................       delay_ms(20);                                            
....................       mp1=key_nhan(); 
....................       do               
....................       {          
....................          delay_ms(5);  
....................          mp2=key_nhan();      
....................       }                     
....................       while(mp2==mp1);  
....................    }              
....................    return(mp1); 
.................... }  
.................... //xxxxxxxxxxxxxxxxxxxxxxxxxxxxxxxxxxxxxxxxxxxxxxxxxxxxxxxx 
.................... //ham quet ma tran phim va chong doi tich cuc khi nhan phim 
.................... //cach 2 
.................... //xxxxxxxxxxxxxxxxxxxxxxxxxxxxxxxxxxxxxxxxxxxxxxxxxxxxxxxx          
.................... unsigned int key_4x4_dw_c2(usi8 dl) 
.................... {      
....................    unsigned int8 mp;   
....................    mp=key_nhan();          
....................    if(mp!=0xff)                                    
....................    {   
....................       dl_btn++; delay_ms(1);         
....................       if(dl_btn>=dl)  
....................       {   
....................          dl_btn=0;  
....................          return mp; 
....................       }                
....................       else  return 0xff;  
....................    } 
....................    else  return 0xff;      
.................... }  
.................... //xxxxxxxxxxxxxxxxxxxxxxxxxxxxxxxxxxxxxxxxxxxxxxxxxxxxxxxx 
.................... //ham quet ma tran phim va chong doi tich cuc khi nha phim 
.................... //xxxxxxxxxxxxxxxxxxxxxxxxxxxxxxxxxxxxxxxxxxxxxxxxxxxxxxxx 
.................... unsigned int key_4x4_up() 
.................... {                     
....................    unsigned int8 mp1,mp2;   
....................    mp1=key_nhan(); 
....................    if(mp1!=0xff)    
....................    {                        
....................       if(mp2==0xff)              
....................       {                                                         
....................          delay_ms(20);   //chong doi 
....................          mp1=key_nhan(); 
....................          if(mp1!=0xff)   mp2=mp1; 
....................          return(mp1);    //phim moi                   
....................       }   
....................       else                
....................       {                                                                                                              
....................          do 
....................          {                                                     
....................             mp2=key_nhan(); 
....................             delay_ms(5);  
....................          } while(mp2!=0xff);                                                      
....................          return(mp2);     //thoat khi nha phim           
....................       }                 
....................    }            
....................    else                   
....................    { 
....................       mp2=mp1; 
....................       return(mp1);     //thoat vi khong nhan   
....................    }       
.................... } 
....................                                         
....................  
.................... #include <math.h> 
.................... //////////////////////////////////////////////////////////////////////////// 
.................... ////        (C) Copyright 1996,2011 Custom Computer Services            //// 
.................... //// This source code may only be used by licensed users of the CCS C   //// 
.................... //// compiler.  This source code may only be distributed to other       //// 
.................... //// licensed users of the CCS C compiler.  No other use, reproduction  //// 
.................... //// or distribution is permitted without written permission.           //// 
.................... //// Derivative programs created using this software in object code     //// 
.................... //// form are not restricted in any way.                                //// 
.................... //////////////////////////////////////////////////////////////////////////// 
.................... ////                                                                    //// 
.................... //// History:                                                           //// 
.................... ////  * 9/20/2001 :  Improvments are made to sin/cos code.              //// 
.................... ////                 The code now is small, much faster,                //// 
.................... ////                 and more accurate.                                 //// 
.................... ////  * 2/21/2007 :  Compiler handles & operator differently and does   //// 
.................... ////                 not return generic (int8 *) so type cast is done   //// 
.................... ////  * 6/19/2010 :  Divisions by constants converted to multiplication //// 
.................... ////                 by its inverse to improve computation speed        //// 
.................... ////  * 1/21/2011 :  Constants used for double precision math updated   //// 
.................... ////                 Updated routines include 64 bit versions of cos,   //// 
.................... ////                 asin,atan,exp,log and dependant functions          //// 
.................... ////  * 1/31/2011 :  Optimized current 32-bit float routines for cos    //// 
.................... ////                 and log function                                   //// 
.................... ////  * 6/13/2011 :  Fixed PCD overload CEIL_FLOOR functions for values //// 
.................... ////                 greater then 10000000 and less then -10000000      //// 
.................... ////                                                                    //// 
.................... //////////////////////////////////////////////////////////////////////////// 
....................  
.................... #ifndef MATH_H 
.................... #define MATH_H 
....................  
.................... #ifdef PI 
.................... #undef  PI 
.................... #endif 
.................... #define PI     3.1415926535897932 
....................  
....................  
.................... #define SQRT2  1.4142135623730950 
....................  
.................... //float const ps[4] = {5.9304945, 21.125224, 8.9403076, 0.29730279}; 
.................... //float const qs[4] = {1.0000000, 15.035723, 17.764134, 2.4934718}; 
....................  
.................... ///////////////////////////// Round Functions ////////////////////////////// 
....................  
.................... float32 CEIL_FLOOR(float32 x, unsigned int8 n) 
.................... { 
....................    float32 y, res; 
....................    unsigned int16 l; 
....................    int1 s; 
....................  
....................    s = 0; 
....................    y = x; 
....................  
....................    if (x < 0) 
....................    { 
....................       s = 1; 
....................       y = -y; 
....................    } 
....................  
....................    if (y <= 32768.0) 
....................       res = (float32)(unsigned int16)y; 
....................  
....................  else if (y < 10000000.0) 
....................    {  
....................       l = (unsigned int16)(y*0.000030517578125); 
....................       y = 32768.0*(y*0.000030517578125 - (float32)l); 
....................       res = 32768.0*(float32)l; 
....................       res += (float32)(unsigned int16)y; 
....................    } 
....................  
....................  else 
....................   res = y; 
....................  
....................  y = y - (float32)(unsigned int16)y; 
....................  
....................  if (s) 
....................   res = -res; 
....................  
....................  if (y != 0) 
....................  { 
....................   if (s == 1 && n == 0) 
....................    res -= 1.0; 
....................  
....................   if (s == 0 && n == 1) 
....................    res += 1.0; 
....................  } 
....................  if (x == 0) 
....................     res = 0; 
....................  
....................  return (res); 
.................... } 
....................  
.................... // Overloaded Functions to take care for new Data types in PCD 
.................... // Overloaded function CEIL_FLOOR() for data type - Float48 
.................... #if defined(__PCD__) 
.................... float48 CEIL_FLOOR(float48 x, unsigned int8 n) 
.................... { 
....................    float48 y, res; 
....................    unsigned int32 l; 
....................    int1 s; 
....................  
....................    s = 0; 
....................    y = x; 
....................  
....................    if (x < 0) 
....................    { 
....................       s = 1; 
....................       y = -y; 
....................    } 
....................  
....................    if (y <= 32768.0) 
....................       res = (float48)(unsigned int16)y; 
....................  
....................    else if (y < 549755813888.0) 
....................    { 
....................       l = (unsigned int32)(y*0.000030517578125); 
....................       y = 32768.0*(y*0.000030517578125 - (float48)l); 
....................       res = 32768.0*(float48)l; 
....................       res += (float48)(unsigned int16)y; 
....................    } 
....................    else 
....................    {   
....................       res = y; 
....................       y = 0.0; 
....................    } 
....................     
....................    if(y != 0) 
....................       y = y - (float48)(unsigned int16)y; 
....................  
....................    if (s) 
....................       res = -res; 
....................  
....................    if (y != 0) 
....................    { 
....................       if (s == 1 && n == 0) 
....................          res -= 1.0; 
....................  
....................       if (s == 0 && n == 1) 
....................          res += 1.0; 
....................    } 
....................    if (x == 0) 
....................       res = 0; 
....................  
....................    return (res); 
.................... } 
....................  
....................  
.................... // Overloaded function CEIL_FLOOR() for data type - Float64 
.................... float64 CEIL_FLOOR(float64 x, unsigned int8 n) 
.................... { 
....................    float64 y, res; 
....................    int64 l; 
....................    int1 s; 
....................  
....................    s = 0; 
....................    y = x; 
....................  
....................    if (x < 0) 
....................    { 
....................       s = 1; 
....................       y = -y; 
....................    } 
....................  
....................    if (y <= 32768.0) 
....................       res = (float64)(unsigned int16)y; 
....................    else if (y < 4503599627370496.0) 
....................    { 
....................       l = (int64)(y*0.000030517578125); 
....................       y = 32768.0*(y*0.000030517578125 - (float64)l); 
....................       res = 32768.0*(float64)l; 
....................       res += (float64)(unsigned int16)y; 
....................    } 
....................    else 
....................    { 
....................       res = y; 
....................       y = 0.0; 
....................    } 
....................     
....................    if(y != 0) 
....................       y = y - (float64)(unsigned int16)y; 
....................  
....................    if (s) 
....................       res = -res; 
....................  
....................    if (y != 0) 
....................    { 
....................       if (s == 1 && n == 0) 
....................          res -= 1.0; 
....................  
....................       if (s == 0 && n == 1) 
....................          res += 1.0; 
....................    } 
....................     
....................    if (x == 0) 
....................       res = 0; 
....................  
....................    return (res); 
.................... } 
.................... #endif 
....................  
.................... //////////////////////////////////////////////////////////////////////////// 
.................... //   float floor(float x) 
.................... //////////////////////////////////////////////////////////////////////////// 
.................... // Description : rounds down the number x. 
.................... // Date : N/A 
.................... // 
.................... float32 floor(float32 x) 
.................... { 
....................    return CEIL_FLOOR(x,0); 
.................... } 
.................... // Following 2 functions are overloaded functions of floor() for PCD 
.................... // Overloaded function floor() for data type - Float48 
.................... #if defined(__PCD__) 
.................... float48 floor(float48 x) 
.................... { 
....................    return CEIL_FLOOR(x, 0); 
.................... } 
....................  
.................... // Overloaded function floor() for data type - Float64 
.................... float64 floor(float64 x) 
.................... { 
....................    return CEIL_FLOOR(x, 0); 
.................... } 
.................... #endif 
....................  
....................  
.................... //////////////////////////////////////////////////////////////////////////// 
.................... //   float ceil(float x) 
.................... //////////////////////////////////////////////////////////////////////////// 
.................... // Description : rounds up the number x. 
.................... // Date : N/A 
.................... // 
.................... float32 ceil(float32 x) 
.................... { 
....................    return CEIL_FLOOR(x, 1); 
.................... } 
.................... // Following 2 functions are overloaded functions of ceil() for PCD 
.................... // Overloaded function ceil() for data type - Float48 
.................... #if defined(__PCD__) 
.................... float48 ceil(float48 x) 
.................... { 
....................    return CEIL_FLOOR(x, 1); 
.................... } 
....................  
.................... // Overloaded function ceil() for data type - Float64 
.................... float64 ceil(float64 x) 
.................... { 
....................    return CEIL_FLOOR(x, 1); 
.................... } 
.................... #endif 
....................  
....................  //////////////////////////////////////////////////////////////////////////// 
.................... //   float fabs(float x) 
.................... //////////////////////////////////////////////////////////////////////////// 
.................... // Description : Computes the absolute value of floating point number x 
.................... // Returns : returns the absolute value of x 
.................... // Date : N/A 
.................... // 
.................... #define fabs abs 
....................  
.................... //////////////////////////////////////////////////////////////////////////// 
.................... //   float fmod(float x) 
.................... //////////////////////////////////////////////////////////////////////////// 
.................... // Description : Computes the floating point remainder of x/y 
.................... // Returns : returns the value of x= i*y, for some integer i such that, if y 
.................... // is non zero, the result has the same isgn of x na dmagnitude less than the 
.................... // magnitude of y. If y is zero then a domain error occurs. 
.................... // Date : N/A 
.................... // 
....................  
.................... float fmod(float32 x,float32 y) 
.................... { 
....................    float32 i; 
....................    if (y!=0.0) 
....................    { 
....................       i=(x/y < 0.0)? ceil(x/y): floor(x/y); 
....................       return(x-(i*y)); 
....................    } 
....................    else 
....................    { 
....................    #ifdef _ERRNO 
....................    { 
....................       errno=EDOM; 
....................    } 
....................    #endif 
....................    } 
.................... } 
.................... //Overloaded function for fmod() for PCD 
.................... // Overloaded function fmod() for data type - Float48 
.................... #if defined(__PCD__) 
.................... float48 fmod(float48 x,float48 y) 
.................... { 
....................    float48 i; 
....................    if (y!=0.0) 
....................    { 
....................       i=(x/y < 0.0)? ceil(x/y): floor(x/y); 
....................       return(x-(i*y)); 
....................    } 
....................    else 
....................    { 
....................    #ifdef _ERRNO 
....................    { 
....................       errno=EDOM; 
....................    } 
....................    #endif 
....................    } 
.................... } 
.................... // Overloaded function fmod() for data type - Float64 
.................... float64 fmod(float64 x,float64 y) 
.................... { 
....................    float64 i; 
....................    if (y!=0.0) 
....................    { 
....................       i=(x/y < 0.0)? ceil(x/y): floor(x/y); 
....................       return(x-(i*y)); 
....................    } 
....................    else 
....................    { 
....................    #ifdef _ERRNO 
....................    { 
....................       errno=EDOM; 
....................    } 
....................    #endif 
....................    } 
.................... } 
.................... #endif 
.................... //////////////////// Exponential and logarithmic functions //////////////////// 
.................... //////////////////////////////////////////////////////////////////////////// 
.................... //   float exp(float x) 
.................... //////////////////////////////////////////////////////////////////////////// 
.................... // Description : returns the value (e^x) 
.................... // Date : N/A 
.................... // 
.................... #define LN2 0.6931471805599453 
.................... #define LN2_INV 1.4426950408889634073 
....................  
.................... float const pe[6] = {0.000207455774, 0.00127100575, 0.00965065093, 
....................                      0.0554965651,  0.240227138,  0.693147172}; 
....................  
....................  
.................... float32 exp(float32 x) 
.................... { 
....................    float32 y, res, r; 
....................    #if defined(__PCD__) 
....................    int8 data1; 
....................    #endif 
....................    signed int8 n; 
....................    int1 s; 
....................    #ifdef _ERRNO 
....................    if(x > 88.722838) 
....................    { 
....................       errno=ERANGE; 
....................       return(0); 
....................    } 
....................    #endif 
....................    n = (signed int16)(x*LN2_INV); 
....................    s = 0; 
....................    y = x; 
....................  
....................    if (x < 0) 
....................    { 
....................       s = 1; 
....................       n = -n; 
....................       y = -y; 
....................    } 
....................  
....................    res = 0.0; 
.................... #if !defined(__PCD__) 
....................    *((unsigned int8 *)(&res)) = n + 0x7F; 
.................... #endif 
....................  
.................... #if defined(__PCD__)  // Takes care of IEEE format for PCD 
....................    data1 = n+0x7F; 
....................    if(bit_test(data1,0)) 
....................    bit_set(*(((unsigned int8 *)(&res)+2)),7); 
....................    rotate_right(&data1,1); 
....................    bit_clear(data1,7); 
....................    *(((unsigned int8 *)(&res)+3)) = data1; 
.................... #endif 
....................  
....................    y = y*LN2_INV - (float32)n; 
....................  
....................    r = pe[0]*y + pe[1]; 
....................    r = r*y + pe[2]; 
....................    r = r*y + pe[3]; 
....................    r = r*y + pe[4]; 
....................    r = r*y + pe[5]; 
....................  
....................    res = res*(1.0 + y*r); 
....................  
....................    if (s) 
....................       res = 1.0/res; 
....................    return(res); 
.................... } 
....................  
....................  
.................... //Overloaded function for exp() for PCD 
.................... // Overloaded function exp() for data type - Float48 
.................... #if defined(__PCD__) 
.................... float48 exp(float48 x) 
.................... { 
....................    float48 y, res, r; 
....................    int8 data1; 
....................    signed int8 n; 
....................    int1 s; 
....................    #ifdef _ERRNO 
....................    if(x > 88.722838) 
....................    { 
....................       errno=ERANGE; 
....................       return(0); 
....................    } 
....................    #endif 
....................    n = (signed int16)(x*LN2_INV); 
....................    s = 0; 
....................    y = x; 
....................  
....................    if (x < 0) 
....................    { 
....................       s = 1; 
....................       n = -n; 
....................       y = -y; 
....................    } 
....................  
....................    res = 0.0; 
....................  
....................    data1 = n+0x7F; 
....................    if(bit_test(data1,0)) 
....................    bit_set(*(((unsigned int8 *)(&res)+4)),7); 
....................    rotate_right(&data1,1); 
....................    bit_clear(data1,7); 
....................    *(((unsigned int8 *)(&res)+5)) = data1; 
....................  
....................    y = y*LN2_INV - (float48)n; 
....................  
....................    r = pe[0]*y + pe[1]; 
....................    r = r*y + pe[2]; 
....................    r = r*y + pe[3]; 
....................    r = r*y + pe[4]; 
....................    r = r*y + pe[5]; 
....................  
....................    res = res*(1.0 + y*r); 
....................  
....................    if (s) 
....................       res = 1.0/res; 
....................    return(res); 
.................... } 
....................  
.................... // Overloaded function exp() for data type - Float64 
.................... float64 const pe_64[12] ={9.30741400474913e-011,-4.28655416283316e-011, 
....................                           8.71486547014137e-009,9.84458531538385e-008, 
....................                           1.32588296983536e-006,1.52489283823016e-005, 
....................                           0.000154037598423921,0.00133335487036216, 
....................                           0.00961812936407326,0.0555041086222122, 
....................                           0.240226506962827,0.693147180559823}; 
....................  
.................... float64 exp(float64 x) 
.................... { 
....................    float64 y, res, r; 
....................    unsigned int16 data1, data2; 
....................    unsigned int16 *p; 
....................    signed int16 n; 
....................    int1 s; 
....................    #ifdef _ERRNO 
....................    if(x > 709.7827128) 
....................    { 
....................       errno=ERANGE; 
....................       return(0); 
....................    } 
....................    #endif 
....................    y = x*LN2_INV; 
....................    n = (signed int16)y; 
....................    s = 0; 
....................    y = x; 
....................  
....................    if (x < 0) 
....................    { 
....................       s = 1; 
....................       n = -n; 
....................       y = -y; 
....................    } 
....................  
....................    res = 0.0; 
....................  
.................... #if !defined(__PCD__) 
....................    *((unsigned int16 *)(&res)) = n + 0x7F; 
.................... #endif 
....................    p= (((unsigned int16 *)(&res))+3); 
....................    data1 = *p; 
....................    data2 = *p;    
....................    data1 = n + 0x3FF; 
....................    data1 = data1 <<4; 
....................    if(bit_test(data2,15)) 
....................    bit_set(data1,15); 
....................    data2 = data2 & 0x000F; 
....................    data1 ^= data2; 
....................  
....................    *(((unsigned int16 *)(&res)+3)) = data1; 
....................  
....................  
....................    y = y*LN2_INV - (float64)n; 
....................  
....................    r = pe_64[0]*y + pe_64[1]; 
....................    r = r*y + pe_64[2]; 
....................    r = r*y + pe_64[3]; 
....................    r = r*y + pe_64[4]; 
....................    r = r*y + pe_64[5]; 
....................    r = r*y + pe_64[6]; 
....................    r = r*y + pe_64[7]; 
....................    r = r*y + pe_64[8]; 
....................    r = r*y + pe_64[9]; 
....................    r = r*y + pe_64[10]; 
....................    r = r*y + pe_64[11]; 
....................     
....................    res = res*(1.0 + y*r); 
....................  
....................    if (s) 
....................       res = 1.0/res; 
....................    return(res); 
.................... } 
.................... #ENDIF 
....................  
....................  
.................... /************************************************************/ 
....................  
.................... float32 const pl[4] = {-1.080310025160955, 1.999999947089217}; 
.................... float32 const ql[4] = {0.091284365719509, -0.873491916557671}; 
....................  
.................... //////////////////////////////////////////////////////////////////////////// 
.................... //   float log(float x) 
.................... //////////////////////////////////////////////////////////////////////////// 
.................... // Description : returns the the natural log of x 
.................... // Date : N/A 
.................... // 
.................... float32 log(float32 x) 
.................... { 
....................    float32 y, res, r, y2; 
....................    #if defined(__PCD__) 
....................    unsigned int8  data1,data2; 
....................    #endif 
....................    signed int8 n; 
....................    #ifdef _ERRNO 
....................    if(x <0) 
....................    { 
....................       errno=EDOM; 
....................    } 
....................    if(x ==0) 
....................    { 
....................       errno=ERANGE; 
....................       return(0); 
....................    } 
....................    #endif 
....................    y = x; 
....................  
....................    if (y != 1.0) 
....................    { 
.................... #if !defined(__PCD__) 
....................     *((unsigned int8 *)(&y)) = 0x7E;  
.................... #endif 
....................  
.................... #if defined(__PCD__) // Takes care of IEEE format 
....................    data2 = *(((unsigned int8 *)(&y))+3); 
....................    *(((unsigned int8 *)(&y))+3) = 0x3F; 
....................    data1 = *(((unsigned int8 *)(&y))+2); 
....................    bit_clear(data1,7); 
....................    *(((unsigned int8 *)(&y))+2) = data1; 
....................    if(bit_test(data2,7)) 
....................      bit_set(*(((unsigned int8 *)(&y))+3),7); 
.................... #endif 
....................  
....................       y = (y - 1.0)/(y + 1.0); 
....................  
....................       y2=y*y; 
....................  
....................       res = pl[0]*y2 + pl[1]; 
....................  
....................       r = ql[0]*y2 + ql[1]; 
....................       r = r*y2 + 1.0; 
....................  
....................       res = y*res/r; 
.................... #if !defined(__PCD__) 
....................       n = *((unsigned int8 *)(&x)) - 0x7E; 
.................... #endif 
.................... #if defined(__PCD__)  
....................     data1 = *(((unsigned int8 *)(&x)+3)); 
....................     rotate_left(&data1,1); 
....................     data2 = *(((unsigned int8 *)(&x)+2)); 
....................     if(bit_test (data2,7)) 
....................       bit_set(data1,0); 
....................     n = data1 - 0x7E; 
.................... #endif 
....................  
....................       if (n<0)  
....................          r = -(float32)-n; 
....................       else 
....................          r = (float32)n; 
....................  
....................       res += r*LN2; 
....................    } 
....................  
....................    else 
....................       res = 0.0; 
....................  
....................    return(res); 
.................... } 
....................  
.................... //Overloaded function for log() for PCD 
.................... // Overloaded function log() for data type - Float48 
.................... #if defined(__PCD__) 
.................... // Overloaded function log() for data type - float64 
.................... float64 const pl_64[4] = {-0.145694052150681, 1.365485300000370, 
....................                           -3.120535668274329, 2.000000000000000}; 
....................  
.................... float64 const ql_64[4] = {0.006047500465908, -0.208298281937234, 
....................                           1.113943039156721, -1.893601167470470}; 
....................  
.................... float48 log(float48 x) 
.................... { 
....................    float48 y, res, r, y2; 
....................    unsigned int8  data1,data2; 
....................    signed int8 n; 
.................... #ifdef _ERRNO 
....................    if(x <0) 
....................    { 
....................       errno=EDOM; 
....................    } 
....................    if(x ==0) 
....................    { 
....................       errno=ERANGE; 
....................       return(0); 
....................    } 
.................... #endif 
....................    y = x; 
....................  
....................    if (y != 1.0) 
....................    { 
....................  
.................... #if !defined(__PCD__) 
....................       *((unsigned int8 *)(&y)) = 0x7E;  
.................... #endif 
....................       data2 = *(((unsigned int8 *)(&y))+5); 
....................       *(((unsigned int8 *)(&y))+5) = 0x3F; 
....................       data1 = *(((unsigned int8 *)(&y))+4); 
....................       bit_clear(data1,7); 
....................       *(((unsigned int8 *)(&y))+4) = data1; 
....................  
....................       if(bit_test(data2,7)) 
....................       bit_set(*(((unsigned int8 *)(&y))+4),7); 
....................       y = (y - 1.0)/(y + 1.0); 
....................  
....................       y2=y*y; 
....................  
....................       res = pl_64[0]*y2 + pl_64[1]; 
....................       res = res*y2 + pl_64[2]; 
....................       res = res*y2 + pl_64[3]; 
....................  
....................       r = ql_64[0]*y2 + ql_64[1]; 
....................       r = r*y2 + ql_64[2]; 
....................       r = r*y2 + ql_64[3]; 
....................       r = r*y2 + 1.0;  
....................       res = y*res/r; 
....................  
....................       data1 = *(((unsigned int8 *)(&x)+5)); 
....................       rotate_left(&data1,1); 
....................       data2 = *(((unsigned int8 *)(&x)+4)); 
....................       if(bit_test (data2,7)) 
....................       bit_set(data1,0); 
....................        
....................       n = data1 - 0x7E; 
....................  
....................       if (n<0) 
....................       r = -(float48)-n; 
....................       else 
....................       r = (float48)n; 
....................  
....................       res += r*LN2; 
....................    } 
....................  
....................    else 
....................    res = 0.0; 
....................  
....................    return(res); 
.................... } 
....................  
.................... float64 log(float64 x) 
.................... { 
....................    float64 y, res, r, y2; 
....................    unsigned int16  data1,data2; 
....................    unsigned int16 *p; 
....................    signed int16 n; 
....................    #ifdef _ERRNO 
....................    if(x <0) 
....................    { 
....................       errno=EDOM; 
....................    } 
....................    if(x ==0) 
....................    { 
....................       errno=ERANGE; 
....................       return(0); 
....................    } 
....................    #endif 
....................    y = x; 
....................  
....................    if (y != 1.0) 
....................    { 
....................    #if !defined(__PCD__) 
....................        *((unsigned int8 *)(&y)) = 0x7E;  
....................    #endif 
....................       p= (((unsigned int16 *)(&y))+3); 
....................       data1 = *p; 
....................       data2 = *p; 
....................       data1 = 0x3FE; 
....................       data1 = data1 <<4; 
....................       if(bit_test (data2,15)) 
....................          bit_set(data1,15); 
....................       data2 = data2 & 0x000F; 
....................       data1 ^=data2; 
....................  
....................       *p = data1; 
....................  
....................       y = (y - 1.0)/(y + 1.0); 
....................  
....................       y2=y*y; 
....................  
....................       res = pl_64[0]*y2 + pl_64[1]; 
....................       res = res*y2 + pl_64[2]; 
....................       res = res*y2 + pl_64[3]; 
....................  
....................       r = ql_64[0]*y2 + ql_64[1]; 
....................       r = r*y2 + ql_64[2]; 
....................       r = r*y2 + ql_64[3]; 
....................       r = r*y2 + 1.0; 
....................  
....................       res = y*res/r; 
....................   
....................       p= (((unsigned int16 *)(&x))+3); 
....................       data1 = *p; 
....................       bit_clear(data1,15); 
....................       data1 = data1 >>4;     
....................       n = data1 - 0x3FE; 
....................  
....................  
....................       if (n<0) 
....................          r = -(float64)-n; 
....................       else 
....................          r = (float64)n; 
....................  
....................       res += r*LN2; 
....................    } 
....................  
....................    else 
....................       res = 0.0; 
....................  
....................    return(res); 
.................... } 
.................... #endif 
....................  
....................  
.................... #define LN10 2.3025850929940456 
.................... #define LN10_INV 0.4342944819032518276 
....................  
.................... //////////////////////////////////////////////////////////////////////////// 
.................... //   float log10(float x) 
.................... //////////////////////////////////////////////////////////////////////////// 
.................... // Description : returns the the log base 10 of x 
.................... // Date : N/A 
.................... // 
.................... float32 log10(float32 x) 
.................... { 
....................    float32 r; 
....................  
....................    r = log(x); 
....................    r = r*LN10_INV; 
....................    return(r); 
.................... } 
....................  
.................... //Overloaded functions for log10() for PCD 
.................... // Overloaded function log10() for data type - Float48 
.................... #if defined(__PCD__) 
.................... float48 log10(float48 x) 
.................... { 
....................    float48 r; 
....................  
....................    r = log(x); 
....................    r = r*LN10_INV; 
....................    return(r); 
.................... } 
....................  
.................... // Overloaded function log10() for data type - Float64 
.................... float64 log10(float64 x) 
.................... { 
....................    float64 r; 
....................  
....................    r = log(x); 
....................    r = r*LN10_INV; 
....................    return(r); 
.................... } 
.................... #endif 
.................... //////////////////////////////////////////////////////////////////////////// 
.................... //   float modf(float x) 
.................... //////////////////////////////////////////////////////////////////////////// 
.................... // Description :breaks the argument value int integral and fractional parts, 
.................... // ach of which have the same sign as the argument.  It stores the integral part 
.................... // as a float in the object pointed to by the iptr 
.................... // Returns : returns the signed fractional part of value. 
.................... // Date : N/A 
.................... // 
....................  
.................... float32 modf(float32 value,float32 *iptr) 
.................... { 
....................    *iptr=(value < 0.0)? ceil(value): floor(value); 
....................    return(value - *iptr); 
.................... } 
.................... //Overloaded functions for modf() for PCD 
.................... // Overloaded function modf() for data type - Float48 
.................... #if defined(__PCD__) 
.................... float48 modf(float48 value,float48 *iptr) 
.................... { 
....................    *iptr=(value < 0.0)? ceil(value): floor(value); 
....................    return(value - *iptr); 
.................... } 
.................... // Overloaded function modf() for data type - Float64 
.................... float64 modf(float64 value,float64 *iptr) 
.................... { 
....................    *iptr=(value < 0.0)? ceil(value): floor(value); 
....................    return(value - *iptr); 
.................... } 
.................... #endif 
....................  
.................... //////////////////////////////////////////////////////////////////////////// 
.................... //   float pwr(float x,float y) 
.................... //////////////////////////////////////////////////////////////////////////// 
.................... // Description : returns the value (x^y) 
.................... // Date : N/A 
.................... // Note : 0 is returned when the function will generate an imaginary number 
.................... // 
.................... float32 pwr(float32 x,float32 y) 
.................... { 
....................    if(0 > x && fmod(y, 1) == 0) { 
....................       if(fmod(y, 2) == 0) { 
....................          return (exp(log(-x) * y)); 
....................       } else { 
....................          return (-exp(log(-x) * y)); 
....................       } 
....................    } else if(0 > x && fmod(y, 1) != 0) { 
....................       return 0; 
....................    } else { 
....................       if(x != 0 || 0 >= y) { 
....................          return (exp(log(x) * y)); 
....................       } 
....................    } 
.................... } 
.................... //Overloaded functions for pwr() for PCD 
.................... // Overloaded function pwr() for data type - Float48 
.................... #if defined(__PCD__) 
.................... float48 pwr(float48 x,float48 y) 
.................... { 
....................    if(0 > x && fmod(y, 1) == 0) { 
....................       if(fmod(y, 2) == 0) { 
....................          return (exp(log(-x) * y)); 
....................       } else { 
....................          return (-exp(log(-x) * y)); 
....................       } 
....................    } else if(0 > x && fmod(y, 1) != 0) { 
....................       return 0; 
....................    } else { 
....................       if(x != 0 || 0 >= y) { 
....................          return (exp(log(x) * y)); 
....................       } 
....................    } 
.................... } 
.................... // Overloaded function pwr() for data type - Float64 
.................... float64 pwr(float64 x,float64 y) 
.................... { 
....................    if(0 > x && fmod(y, 1) == 0) { 
....................       if(fmod(y, 2) == 0) { 
....................          return (exp(log(-x) * y)); 
....................       } else { 
....................          return (-exp(log(-x) * y)); 
....................       } 
....................    } else if(0 > x && fmod(y, 1) != 0) { 
....................       return 0; 
....................    } else { 
....................       if(x != 0 || 0 >= y) { 
....................          return (exp(log(x) * y)); 
....................       } 
....................    } 
.................... } 
.................... #endif 
....................  
.................... //////////////////// Power functions //////////////////// 
....................  
.................... //////////////////////////////////////////////////////////////////////////// 
.................... //   float pow(float x,float y) 
.................... //////////////////////////////////////////////////////////////////////////// 
.................... // Description : returns the value (x^y) 
.................... // Date : N/A 
.................... // Note : 0 is returned when the function will generate an imaginary number 
.................... // 
.................... float32 pow(float32 x,float32 y) 
.................... { 
....................    if(0 > x && fmod(y, 1) == 0) { 
....................       if(fmod(y, 2) == 0) { 
....................          return (exp(log(-x) * y)); 
....................       } else { 
....................          return (-exp(log(-x) * y)); 
....................       } 
....................    } else if(0 > x && fmod(y, 1) != 0) { 
....................       return 0; 
....................    } else { 
....................       if(x != 0 || 0 >= y) { 
....................          return (exp(log(x) * y)); 
....................       } 
....................    } 
.................... } 
.................... //Overloaded functions for pow() for PCD 
.................... // Overloaded function for pow() data type - Float48 
.................... #if defined(__PCD__) 
.................... float48 pow(float48 x,float48 y) 
.................... { 
....................    if(0 > x && fmod(y, 1) == 0) { 
....................       if(fmod(y, 2) == 0) { 
....................          return (exp(log(-x) * y)); 
....................       } else { 
....................          return (-exp(log(-x) * y)); 
....................       } 
....................    } else if(0 > x && fmod(y, 1) != 0) { 
....................       return 0; 
....................    } else { 
....................       if(x != 0 || 0 >= y) { 
....................          return (exp(log(x) * y)); 
....................       } 
....................    } 
.................... } 
....................  
.................... // Overloaded function pow() for data type - Float64 
.................... float64 pow(float64 x,float64 y) 
.................... { 
....................    if(0 > x && fmod(y, 1) == 0) { 
....................       if(fmod(y, 2) == 0) { 
....................          return (exp(log(-x) * y)); 
....................       } else { 
....................          return (-exp(log(-x) * y)); 
....................       } 
....................    } else if(0 > x && fmod(y, 1) != 0) { 
....................       return 0; 
....................    } else { 
....................       if(x != 0 || 0 >= y) { 
....................          return (exp(log(x) * y)); 
....................       } 
....................    } 
.................... } 
.................... #endif 
....................  
.................... //////////////////////////////////////////////////////////////////////////// 
.................... //   float sqrt(float x) 
.................... //////////////////////////////////////////////////////////////////////////// 
.................... // Description : returns the square root of x 
.................... // Date : N/A 
.................... // 
.................... float32 sqrt(float32 x) 
.................... { 
....................    float32 y, res; 
....................    #if defined(__PCD__) 
....................    unsigned int16 data1,data2; 
....................    #endif 
....................    unsigned int8 *p; 
....................  
....................    #ifdef _ERRNO 
....................    if(x < 0) 
....................    { 
....................       errno=EDOM; 
....................    } 
....................    #endif 
....................  
....................    if( x<=0.0) 
....................       return(0.0); 
....................  
....................    y=x; 
....................     
....................    #if !defined(__PCD__) 
....................     p=&y; 
....................    (*p)=(unsigned int8)((((unsigned int16)(*p)) + 127) >> 1); 
....................    #endif 
....................     
....................    #if defined(__PCD__) 
....................     p = (((unsigned int8 *)(&y))+3); 
....................     data1 = *(((unsigned int8 *)(&y))+3); 
....................     data2 = *(((unsigned int8 *)(&y))+2); 
....................     rotate_left(&data1,1);     
....................     if(bit_test(data2,7))     
....................        bit_set(data1,0);     
....................     data1 = ((data1+127) >>1); 
....................     bit_clear(data2,7); 
....................     if(bit_test(data1,0)) 
....................        bit_set(data2,7); 
....................     data1 = data1 >>1; 
....................     *(((unsigned int8 *)(&y))+3) = data1; 
....................     *(((unsigned int8 *)(&y))+2) = data2; 
....................      
....................   #endif 
....................  
....................    do { 
....................       res=y; 
....................       y+=(x/y); 
....................  
....................       #if !defined(__PCD__) 
....................      (*p)--; 
....................    #endif 
....................     
....................    #if defined(__PCD__) 
....................     data1 = *(((unsigned int8 *)(&y))+3); 
....................     data2 = *(((unsigned int8 *)(&y))+2); 
....................     rotate_left(&data1,1); 
....................     if(bit_test(data2,7)) 
....................        bit_set(data1,0);     
....................     data1--; 
....................     bit_clear(data2,7); 
....................     if(bit_test(data1,0)) 
....................        bit_set(data2,7); 
....................     data1 = data1 >>1; 
....................     *(((unsigned int8 *)(&y))+3) = data1; 
....................     *(((unsigned int8 *)(&y))+2) = data2; 
....................      
....................   #endif 
....................    } while(res != y); 
....................  
....................    return(res); 
.................... } 
.................... //Overloaded functions for sqrt() for PCD 
.................... // Overloaded function sqrt() for data type - Float48 
.................... #if defined(__PCD__) 
.................... float48 sqrt(float48 x) 
.................... { 
....................    float48 y, res; 
....................    unsigned int16 data1,data2; 
....................    unsigned int8 *p; 
....................  
....................    #ifdef _ERRNO 
....................    if(x < 0) 
....................    { 
....................       errno=EDOM; 
....................    } 
....................    #endif 
....................  
....................    if( x<=0.0) 
....................       return(0.0); 
....................  
....................    y=x; 
....................     
....................    #if !defined(__PCD__) 
....................     p=&y; 
....................    (*p)=(unsigned int8)((((unsigned int16)(*p)) + 127) >> 1); 
....................    #endif 
....................     
....................    #if defined(__PCD__) 
....................     p = (((unsigned int8 *)(&y))+5); 
....................     data1 = *(((unsigned int8 *)(&y))+5); 
....................     data2 = *(((unsigned int8 *)(&y))+4); 
....................     rotate_left(&data1,1); 
....................     if(bit_test(data2,7)) 
....................        bit_set(data1,0);     
....................     data1 = ((data1+127) >>1); 
....................     bit_clear(data2,7); 
....................     if(bit_test(data1,0)) 
....................        bit_set(data2,7); 
....................     data1 = data1 >>1; 
....................     *(((unsigned int8 *)(&y))+5) = data1; 
....................     *(((unsigned int8 *)(&y))+4) = data2; 
....................      
....................   #endif 
....................  
....................    do { 
....................       res=y; 
....................       y+=(x/y); 
....................  
....................       #if !defined(__PCD__) 
....................      (*p)--; 
....................    #endif 
....................     
....................     data1 = *(((unsigned int8 *)(&y))+5); 
....................     data2 = *(((unsigned int8 *)(&y))+4); 
....................     rotate_left(&data1,1); 
....................     if(bit_test(data2,7)) 
....................        bit_set(data1,0);     
....................     data1--; 
....................     bit_clear(data2,7); 
....................     if(bit_test(data1,0)) 
....................        bit_set(data2,7); 
....................     data1 = data1 >>1; 
....................     *(((unsigned int8 *)(&y))+5) = data1; 
....................     *(((unsigned int8 *)(&y))+4) = data2; 
....................      
....................    } while(res != y); 
....................  
....................    return(res); 
.................... } 
....................  
.................... // Overloaded function sqrt() for data type - Float64 
.................... float64 sqrt(float64 x) 
.................... { 
....................    float64 y, res; 
....................    unsigned int16 *p; 
....................    unsigned int16 temp1,temp2; 
....................  
....................    #ifdef _ERRNO 
....................    if(x < 0) 
....................    { 
....................       errno=EDOM; 
....................    } 
....................    #endif 
....................  
....................    if( x<=0.0) 
....................       return(0.0); 
....................  
....................    y=x; 
....................    p= (((unsigned int16 *)(&y))+3); 
....................    temp1 = *p; 
....................    temp2 = *p; 
....................    bit_clear(temp1,15); 
....................    temp1 = (temp1>>4)+1023; 
....................    temp1 = temp1 >> 1; 
....................    temp1 = (temp1<<4) & 0xFFF0; 
....................    if(bit_test(temp2,15)) 
....................       bit_set(temp1,15); 
....................    temp2 = temp2 & 0x000F; 
....................    temp1 ^= temp2; 
....................     
....................    (*p) = temp1; 
....................     
....................    do { 
....................       res=y; 
....................       y+=(x/y); 
....................      temp1 = *p; 
....................      temp2 = *p; 
....................      bit_clear(temp1,15); 
....................      temp1 = (temp1>>4); 
....................      temp1--; 
....................      temp1 = (temp1<<4) & 0xFFF0; 
....................      if(bit_test(temp2,15)) 
....................         bit_set(temp1,15); 
....................      temp2 = temp2 & 0x000F; 
....................      temp1 ^= temp2; 
....................      (*p) = temp1; 
....................  
....................    } while(res != y); 
....................  
....................    return(res); 
.................... } 
.................... #endif 
....................  
.................... ////////////////////////////// Trig Functions ////////////////////////////// 
.................... #ifdef PI_DIV_BY_TWO_INV 
.................... #undef PI_DIV_BY_TWO_INV 
.................... #endif 
.................... #define PI_DIV_BY_TWO_INV 0.63661977236758134 
.................... #ifdef PI_DIV_BY_TWO 
.................... #undef PI_DIV_BY_TWO 
.................... #endif 
.................... #define PI_DIV_BY_TWO   1.5707963267948966 
.................... #ifdef TWOBYPI 
.................... #undef TWOBYPI 
.................... #endif 
.................... #define TWOBYPI          0.6366197723675813 
....................  
.................... //////////////////////////////////////////////////////////////////////////// 
.................... //   float cos(float x) 
.................... //////////////////////////////////////////////////////////////////////////// 
.................... // Description : returns the cosine value of the angle x, which is in radian 
.................... // Date : 9/20/2001 
.................... // 
.................... float32 cos(float32 x) 
.................... { 
....................    float32 y, t, t2 = 1.0; 
....................    unsigned int8 quad, i; 
....................    float32 frac; 
....................    float32 p[5] = {                    //by the series definition for cosine 
....................       -0.49999999456337096,            // sum ( ( (-1)^n * x^2n )/(2n)! ) 
....................        0.04166663896921267, 
....................       -0.00138883894522527, 
....................        0.00002476138231734, 
....................       -0.00000026070414770 
....................       //-0.00000000001147, 
....................       // 0.00000000000005 
....................    }; 
....................  
....................    if (x < 0) x = -x;                  // absolute value of input 
....................  
....................    quad = (unsigned int8)(x * PI_DIV_BY_TWO_INV);    // quadrant 
....................    frac = (x * PI_DIV_BY_TWO_INV) - quad;  // fractional part of input 
....................    quad = quad % 4;                    // quadrant (0 to 3) 
....................  
....................    if (quad == 0 || quad == 2) 
....................       t = frac * PI_DIV_BY_TWO; 
....................    else if (quad == 1) 
....................       t = (1-frac) * PI_DIV_BY_TWO; 
....................    else // should be 3 
....................       t = (frac-1) * PI_DIV_BY_TWO; 
....................  
....................    y = 1.0; 
....................    t = t * t; 
....................    for (i = 0; i <= 4; i++) 
....................    { 
....................       t2 = t2 * t; 
....................       y = y + p[i] * t2; 
....................    } 
....................  
....................    if (quad == 2 || quad == 1) 
....................       y = -y;  // correct sign 
....................  
....................    return (y); 
.................... } 
....................  
....................  
.................... //Overloaded functions for cos() for PCD 
.................... // Overloaded function cos() for data type - Float48 
.................... #if defined(__PCD__) 
.................... float48 cos(float48 x) 
.................... { 
....................    float48 y, t, t2 = 1.0; 
....................    unsigned int8 quad, i; 
....................    float48 frac; 
....................    float48 p[6] = {                    //by the series definition for cosine 
....................       -0.5,                            // sum ( ( (-1)^n * x^2n )/(2n)! ) 
....................        0.04166666666667, 
....................       -0.00138888888889, 
....................        0.00002480158730, 
....................       -0.00000027557319, 
....................        0.00000000208767, 
....................       //-0.00000000001147, 
....................       // 0.00000000000005 
....................    }; 
....................  
....................    if (x < 0) x = -x;                  // absolute value of input 
....................  
....................    quad = (unsigned int8)(x * PI_DIV_BY_TWO_INV);    // quadrant 
....................    frac = (x * PI_DIV_BY_TWO_INV) - quad;  // fractional part of input 
....................    quad = quad % 4;                    // quadrant (0 to 3) 
....................  
....................    if (quad == 0 || quad == 2) 
....................       t = frac * PI_DIV_BY_TWO; 
....................    else if (quad == 1) 
....................       t = (1-frac) * PI_DIV_BY_TWO; 
....................    else // should be 3 
....................       t = (frac-1) * PI_DIV_BY_TWO; 
....................  
....................    y = 0.999999999781; 
....................    t = t * t; 
....................    for (i = 0; i <= 5; i++) 
....................    { 
....................       t2 = t2 * t; 
....................       y = y + p[i] * t2; 
....................    } 
....................  
....................    if (quad == 2 || quad == 1) 
....................       y = -y;  // correct sign 
....................  
....................    return (y); 
.................... } 
....................  
.................... // Overloaded function cos() for data type - Float64 
.................... float64 cos(float64 x) 
.................... { 
....................    float64 y, t, t2 = 1.0; 
....................    unsigned int8 quad, i; 
....................    float64 frac; 
....................    float64 p_64[9] = {               //by the series definition for cosine 
....................      -0.49999999999998740,           // sum ( ( (-1)^n * x^2n )/(2n)! )              
....................       0.04166666666656518, 
....................      -0.00138888888851691, 
....................       0.00002480158658490, 
....................      -0.00000027557239796, 
....................       0.00000000208715031, 
....................      -0.00000000001126577, 
....................       0.00000000000000427, 
....................       0.00000000000000372}; 
....................  
....................    if (x < 0) x = -x;                  // absolute value of input 
....................  
....................    quad = (unsigned int8)(x * PI_DIV_BY_TWO_INV);    // quadrant 
....................    frac = (x * PI_DIV_BY_TWO_INV) - quad;  // fractional part of input 
....................    quad = quad % 4;                    // quadrant (0 to 3) 
....................  
....................    if (quad == 0 || quad == 2) 
....................       t = frac * PI_DIV_BY_TWO; 
....................    else if (quad == 1) 
....................       t = (1-frac) * PI_DIV_BY_TWO; 
....................    else // should be 3 
....................       t = (frac-1) * PI_DIV_BY_TWO; 
....................  
....................    y = 1.0; 
....................    t = t * t; 
....................    for (i = 0; i <= 8; i++) 
....................    { 
....................       t2 = t2 * t; 
....................       y = y + p_64[i] * t2; 
....................    } 
....................  
....................    if (quad == 2 || quad == 1) 
....................       y = -y;  // correct sign 
....................  
....................    return (y); 
.................... } 
....................  
.................... #endif 
....................  
.................... //////////////////////////////////////////////////////////////////////////// 
.................... //   float sin(float x) 
.................... //////////////////////////////////////////////////////////////////////////// 
.................... // Description : returns the sine value of the angle x, which is in radian 
.................... // Date : 9/20/2001 
.................... // 
.................... float32 sin(float32 x) 
.................... { 
....................    return cos(x - PI_DIV_BY_TWO); 
.................... } 
....................  
.................... //Overloaded functions for sin() for PCD 
.................... // Overloaded function sin() for data type - Float48 
.................... #if defined(__PCD__) 
.................... float48 sin(float48 x) 
.................... { 
....................    return cos(x - PI_DIV_BY_TWO); 
.................... } 
....................  
.................... // Overloaded function sin() for data type - Float48 
.................... float64 sin(float64 x) 
.................... { 
....................    return cos(x - PI_DIV_BY_TWO); 
.................... } 
.................... #endif 
....................  
.................... //////////////////////////////////////////////////////////////////////////// 
.................... //   float tan(float x) 
.................... //////////////////////////////////////////////////////////////////////////// 
.................... // Description : returns the tangent value of the angle x, which is in radian 
.................... // Date : 9/20/2001 
.................... // 
.................... float32 tan(float32 x) 
.................... { 
....................    float32 c, s; 
....................  
....................    c = cos(x); 
....................    if (c == 0.0) 
....................       return (1.0e+36); 
....................  
....................    s = sin(x); 
....................    return(s/c); 
.................... } 
.................... //Overloaded functions for tan() for PCD 
.................... // Overloaded function tan() for data type - Float48 
.................... #if defined(__PCD__) 
.................... float48 tan(float48 x) 
.................... { 
....................    float48 c, s; 
....................  
....................    c = cos(x); 
....................    if (c == 0.0) 
....................       return (1.0e+36); 
....................  
....................    s = sin(x); 
....................    return(s/c); 
.................... } 
....................  
.................... // Overloaded function tan() for data type - Float48 
.................... float64 tan(float64 x) 
.................... { 
....................    float64 c, s; 
....................  
....................    c = cos(x); 
....................    if (c == 0.0) 
....................       return (1.0e+36); 
....................  
....................    s = sin(x); 
....................    return(s/c); 
.................... } 
.................... #endif 
....................  
.................... float32 const pas[3] = {0.49559947, -4.6145309, 5.6036290}; 
.................... float32 const qas[3] = {1.0000000,  -5.5484666, 5.6036290}; 
....................  
.................... float32 ASIN_COS(float32 x, unsigned int8 n) 
.................... { 
....................    float32 y, res, r, y2; 
....................    int1 s; 
....................    #ifdef _ERRNO 
....................    if(x <-1 || x > 1) 
....................    { 
....................       errno=EDOM; 
....................    } 
....................    #endif 
....................    s = 0; 
....................    y = x; 
....................  
....................    if (x < 0) 
....................    { 
....................       s = 1; 
....................       y = -y; 
....................    } 
....................  
....................    if (y > 0.5) 
....................    { 
....................       y = sqrt((1.0 - y)*0.5); 
....................       n += 2; 
....................    } 
....................  
....................    y2=y*y; 
....................  
....................    res = pas[0]*y2 + pas[1]; 
....................    res = res*y2 + pas[2]; 
....................  
....................    r = qas[0]*y2 + qas[1]; 
....................    r = r*y2 + qas[2]; 
....................  
....................    res = y*res/r; 
....................  
....................    if (n & 2)     // |x| > 0.5 
....................       res = PI_DIV_BY_TWO - 2.0*res; 
....................    if (s) 
....................       res = -res; 
....................    if (n & 1)           // take arccos 
....................       res = PI_DIV_BY_TWO - res; 
....................  
....................    return(res); 
.................... } 
....................  
....................  
.................... //Overloaded functions for ASIN_COS() for PCD 
.................... // Overloaded function ASIN_COS() for data type - Float48 
.................... #if defined(__PCD__) 
.................... float48 ASIN_COS(float48 x, unsigned int8 n) 
.................... { 
....................    float48 y, res, r, y2; 
....................    int1 s; 
....................    #ifdef _ERRNO 
....................    if(x <-1 || x > 1) 
....................    { 
....................       errno=EDOM; 
....................    } 
....................    #endif 
....................    s = 0; 
....................    y = x; 
....................  
....................    if (x < 0) 
....................    { 
....................       s = 1; 
....................       y = -y; 
....................    } 
....................  
....................    if (y > 0.5) 
....................    { 
....................       y = sqrt((1.0 - y)*0.5); 
....................       n += 2; 
....................    } 
....................  
....................    y2=y*y; 
....................  
....................    res = pas[0]*y2 + pas[1]; 
....................    res = res*y2 + pas[2]; 
....................  
....................    r = qas[0]*y2 + qas[1]; 
....................    r = r*y2 + qas[2]; 
....................  
....................    res = y*res/r; 
....................  
....................    if (n & 2)     // |x| > 0.5 
....................       res = PI_DIV_BY_TWO - 2.0*res; 
....................    if (s) 
....................       res = -res; 
....................    if (n & 1)           // take arccos 
....................       res = PI_DIV_BY_TWO - res; 
....................  
....................    return(res); 
.................... } 
....................  
.................... // Overloaded function ASIN_COS() for data type - Float64 
.................... double pas_64[5]={1.000000000000000,-2.069938587724477,1.421444580548907, 
....................                  -0.360690137621842,0.024929451660228}; 
....................  
.................... double qas_64[5]={-2.236605254391134,1.719212122946451,-0.524122954476133, 
....................                    0.052808872045749,-0.000662536036570}; 
....................                     
.................... float64 ASIN_COS(float64 x, unsigned int8 n) 
.................... { 
....................    float64 y, res, r, y2; 
....................    int1 s; 
....................    #ifdef _ERRNO 
....................    if(x <-1 || x > 1) 
....................    { 
....................       errno=EDOM; 
....................    } 
....................    #endif 
....................    s = 0; 
....................    y = x; 
....................  
....................    if (x < 0) 
....................    { 
....................       s = 1; 
....................       y = -y; 
....................    } 
....................  
....................    if (y > 0.5) 
....................    { 
....................       y = sqrt((1.0 - y)*0.5); 
....................       n += 2; 
....................    } 
....................  
....................    y2=y*y; 
....................  
....................    res = pas_64[4]*y2 + pas_64[3]; 
....................    res = res*y2 + pas_64[2]; 
....................    res = res*y2 + pas_64[1]; 
....................    res = res*y2 + pas_64[0]; 
....................  
....................    r = qas_64[4]*y2 + qas_64[3]; 
....................    r = r*y2 + qas_64[2]; 
....................    r = r*y2 + qas_64[1]; 
....................    r = r*y2 + qas_64[0]; 
....................    r = r*y2 + 1.0; 
....................  
....................    res = y*res/r; 
....................  
....................    if (n & 2)     // |x| > 0.5 
....................       res = PI_DIV_BY_TWO - 2.0*res; 
....................    if (s) 
....................       res = -res; 
....................    if (n & 1)           // take arccos 
....................       res = PI_DIV_BY_TWO - res; 
....................  
....................    return(res); 
.................... } 
.................... #endif 
....................  
.................... //////////////////////////////////////////////////////////////////////////// 
.................... //   float asin(float x) 
.................... //////////////////////////////////////////////////////////////////////////// 
.................... // Description : returns the arcsine value of the value x. 
.................... // Date : N/A 
.................... // 
.................... float32 asin(float32 x) 
.................... { 
....................    float32 r; 
....................  
....................    r = ASIN_COS(x, 0); 
....................    return(r); 
.................... } 
.................... //Overloaded functions for asin() for PCD 
.................... // Overloaded function asin() for data type - Float48 
.................... #if defined(__PCD__) 
.................... float48 asin(float48 x) 
.................... { 
....................    float48 r; 
....................  
....................    r = ASIN_COS(x, 0); 
....................    return(r); 
.................... } 
....................  
.................... // Overloaded function asin() for data type - Float64 
.................... float64 asin(float64 x) 
.................... { 
....................    float64 r; 
....................  
....................    r = ASIN_COS(x, 0); 
....................    return(r); 
.................... } 
.................... #endif 
....................  
.................... //////////////////////////////////////////////////////////////////////////// 
.................... //   float acos(float x) 
.................... //////////////////////////////////////////////////////////////////////////// 
.................... // Description : returns the arccosine value of the value x. 
.................... // Date : N/A 
.................... // 
.................... float32 acos(float32 x) 
.................... { 
....................    float32 r; 
....................  
....................    r = ASIN_COS(x, 1); 
....................    return(r); 
.................... } 
.................... //Overloaded functions for acos() for PCD 
.................... // Overloaded function acos() for data type - Float48 
.................... #if defined(__PCD__) 
.................... float48 acos(float48 x) 
.................... { 
....................    float48 r; 
....................  
....................    r = ASIN_COS(x, 1); 
....................    return(r); 
.................... } 
....................  
.................... // Overloaded function acos() for data type - Float64 
.................... float64 acos(float64 x) 
.................... { 
....................    float64 r; 
....................  
....................    r = ASIN_COS(x, 1); 
....................    return(r); 
.................... } 
.................... #endif 
....................  
.................... float32 const pat[4] = {0.17630401, 5.6710795, 22.376096, 19.818457}; 
.................... float32 const qat[4] = {1.0000000,  11.368190, 28.982246, 19.818457}; 
....................  
.................... //////////////////////////////////////////////////////////////////////////// 
.................... //   float atan(float x) 
.................... //////////////////////////////////////////////////////////////////////////// 
.................... // Description : returns the arctangent value of the value x. 
.................... // Date : N/A 
.................... // 
.................... float32 atan(float32 x) 
.................... { 
....................    float32 y, res, r; 
....................    int1 s, flag; 
....................  
....................    s = 0; 
....................    flag = 0; 
....................    y = x; 
....................  
....................    if (x < 0) 
....................    { 
....................       s = 1; 
....................       y = -y; 
....................    } 
....................  
....................    if (y > 1.0) 
....................    { 
....................       y = 1.0/y; 
....................       flag = 1; 
....................    } 
....................  
....................    res = pat[0]*y*y + pat[1]; 
....................    res = res*y*y + pat[2]; 
....................    res = res*y*y + pat[3]; 
....................  
....................    r = qat[0]*y*y + qat[1]; 
....................    r = r*y*y + qat[2]; 
....................    r = r*y*y + qat[3]; 
....................  
....................    res = y*res/r; 
....................  
....................  
....................    if (flag)                              // for |x| > 1 
....................       res = PI_DIV_BY_TWO - res; 
....................    if (s) 
....................       res = -res; 
....................  
....................    return(res); 
.................... } 
.................... //Overloaded functions for atan() for PCD 
.................... // Overloaded function atan() for data type - Float48 
.................... #if defined(__PCD__) 
.................... float48 atan(float48 x) 
.................... { 
....................    float48 y, res, r; 
....................    int1 s, flag; 
....................  
....................    s = 0; 
....................    flag = 0; 
....................    y = x; 
....................  
....................    if (x < 0) 
....................    { 
....................       s = 1; 
....................       y = -y; 
....................    } 
....................  
....................    if (y > 1.0) 
....................    { 
....................       y = 1.0/y; 
....................       flag = 1; 
....................    } 
....................  
....................    res = pat[0]*y*y + pat[1]; 
....................    res = res*y*y + pat[2]; 
....................    res = res*y*y + pat[3]; 
....................  
....................    r = qat[0]*y*y + qat[1]; 
....................    r = r*y*y + qat[2]; 
....................    r = r*y*y + qat[3]; 
....................  
....................    res = y*res/r; 
....................  
....................  
....................    if (flag)                              // for |x| > 1 
....................       res = PI_DIV_BY_TWO - res; 
....................    if (s) 
....................       res = -res; 
....................  
....................    return(res); 
.................... } 
....................  
.................... float64 pat_64[6]={0.999999999999999,2.249923645595566,1.771541617806449, 
....................                    0.579678874003185,0.072162702162882,0.002281100141660}; 
....................  
.................... float64 qat_64[6]={2.583256978928510,2.432627277466967,1.016760379885393, 
....................                    0.182482977188688,0.011155377971690,0.000100013019160}; 
.................... // Overloaded function atan() for data type - Float64 
.................... float64 atan(float64 x) 
.................... { 
....................    float64 y,y2, res, r; 
....................    int1 s, flag; 
....................  
....................    s = 0; 
....................    flag = 0; 
....................    y = x; 
....................  
....................    if (x < 0) 
....................    { 
....................       s = 1; 
....................       y = -y; 
....................    } 
....................  
....................    if (y > 1.0) 
....................    { 
....................       y = 1.0/y; 
....................       flag = 1; 
....................    } 
....................    y2 = y*y; 
....................    res = pat_64[5]*y2 + pat_64[4]; 
....................    res = res*y2 + pat_64[3]; 
....................    res = res*y2 + pat_64[2]; 
....................    res = res*y2 + pat_64[1]; 
....................    res = res*y2 + pat_64[0]; 
....................  
....................    r = qat_64[5]*y2 + qat_64[4]; 
....................    r = r*y2 + qat_64[3]; 
....................    r = r*y2 + qat_64[2]; 
....................    r = r*y2 + qat_64[1]; 
....................    r = r*y2 + qat_64[0]; 
....................    r = r*y2 + 1.0; 
....................  
....................    res = y*res/r; 
....................  
....................  
....................    if (flag)                              // for |x| > 1 
....................       res = PI_DIV_BY_TWO - res; 
....................    if (s) 
....................       res = -res; 
....................  
....................    return(res); 
.................... } 
.................... #endif 
....................  
.................... ///////////////////////////////////////////////////////////////////////////// 
.................... //   float atan2(float y, float x) 
.................... ///////////////////////////////////////////////////////////////////////////// 
.................... // Description :computes the principal value of arc tangent of y/x, using the 
.................... // signs of both the arguments to determine the quadrant of the return value 
.................... // Returns : returns the arc tangent of y/x. 
.................... // Date : N/A 
.................... // 
....................  
.................... float32 atan2(float32 y,float32 x) 
.................... { 
....................    float32 z; 
....................    int1 sign; 
....................    unsigned int8 quad; 
....................    sign=0; 
....................    quad=0; //quadrant 
....................    quad=((y<=0.0)?((x<=0.0)?3:4):((x<0.0)?2:1)); 
....................    if(y<0.0) 
....................    { 
....................       sign=1; 
....................       y=-y; 
....................    } 
....................    if(x<0.0) 
....................    { 
....................       x=-x; 
....................    } 
....................    if (x==0.0) 
....................    { 
....................       if(y==0.0) 
....................       { 
....................       #ifdef _ERRNO 
....................       { 
....................          errno=EDOM; 
....................       } 
....................       #endif 
....................       } 
....................       else 
....................       { 
....................          if(sign) 
....................          { 
....................          return (-(PI_DIV_BY_TWO)); 
....................          } 
....................          else 
....................          { 
....................          return (PI_DIV_BY_TWO); 
....................          } 
....................       } 
....................    } 
....................    else 
....................    { 
....................       z=y/x; 
....................       switch(quad) 
....................       { 
....................          case 1: 
....................          { 
....................             return atan(z); 
....................             break; 
....................          } 
....................          case 2: 
....................          { 
.................... //            return (atan(z)+PI_DIV_BY_TWO);  //2L3122 
....................             return (PI-atan(z)); 
....................             break; 
....................          } 
....................          case 3: 
....................          { 
....................             return (atan(z)-PI); 
....................             break; 
....................          } 
....................          case 4: 
....................          { 
....................             return (-atan(z)); 
....................             break; 
....................          } 
....................       } 
....................    } 
.................... } 
....................  
.................... //Overloaded functions for atan2() for PCD 
.................... // Overloaded function atan2() for data type - Float48 
.................... #if defined(__PCD__) 
.................... float48 atan2(float48 y,float48 x) 
.................... { 
....................    float48 z; 
....................    int1 sign; 
....................    unsigned int8 quad; 
....................    sign=0; 
....................    quad=0; //quadrant 
....................    quad=((y<=0.0)?((x<=0.0)?3:4):((x<0.0)?2:1)); 
....................    if(y<0.0) 
....................    { 
....................       sign=1; 
....................       y=-y; 
....................    } 
....................    if(x<0.0) 
....................    { 
....................       x=-x; 
....................    } 
....................    if (x==0.0) 
....................    { 
....................       if(y==0.0) 
....................       { 
....................       #ifdef _ERRNO 
....................       { 
....................          errno=EDOM; 
....................       } 
....................       #endif 
....................       } 
....................       else 
....................       { 
....................          if(sign) 
....................          { 
....................          return (-(PI_DIV_BY_TWO)); 
....................          } 
....................          else 
....................          { 
....................          return (PI_DIV_BY_TWO); 
....................          } 
....................       } 
....................    } 
....................    else 
....................    { 
....................       z=y/x; 
....................       switch(quad) 
....................       { 
....................          case 1: 
....................          { 
....................             return atan(z); 
....................             break; 
....................          } 
....................          case 2: 
....................          { 
.................... //            return (atan(z)+PI_DIV_BY_TWO);  //2L3122 
....................             return (PI-atan(z)); 
....................             break; 
....................          } 
....................          case 3: 
....................          { 
....................             return (atan(z)-PI); 
....................             break; 
....................          } 
....................          case 4: 
....................          { 
....................             return (-atan(z)); 
....................             break; 
....................          } 
....................       } 
....................    } 
.................... } 
....................  
.................... // Overloaded function atan2() for data type - Float64 
.................... float64 atan2(float64 y,float64 x) 
.................... { 
....................    float64 z; 
....................    int1 sign; 
....................    unsigned int8 quad; 
....................    sign=0; 
....................    quad=0; //quadrant 
....................    quad=((y<=0.0)?((x<=0.0)?3:4):((x<0.0)?2:1)); 
....................    if(y<0.0) 
....................    { 
....................       sign=1; 
....................       y=-y; 
....................    } 
....................    if(x<0.0) 
....................    { 
....................       x=-x; 
....................    } 
....................    if (x==0.0) 
....................    { 
....................       if(y==0.0) 
....................       { 
....................       #ifdef _ERRNO 
....................       { 
....................          errno=EDOM; 
....................       } 
....................       #endif 
....................       } 
....................       else 
....................       { 
....................          if(sign) 
....................          { 
....................          return (-(PI_DIV_BY_TWO)); 
....................          } 
....................          else 
....................          { 
....................          return (PI_DIV_BY_TWO); 
....................          } 
....................       } 
....................    } 
....................    else 
....................    { 
....................       z=y/x; 
....................       switch(quad) 
....................       { 
....................          case 1: 
....................          { 
....................             return atan(z); 
....................             break; 
....................          } 
....................          case 2: 
....................          { 
.................... //            return (atan(z)+PI_DIV_BY_TWO);  //2L3122 
....................             return (PI-atan(z)); 
....................             break; 
....................          } 
....................          case 3: 
....................          { 
....................             return (atan(z)-PI); 
....................             break; 
....................          } 
....................          case 4: 
....................          { 
....................             return (-atan(z)); 
....................             break; 
....................          } 
....................       } 
....................    } 
.................... } 
.................... #endif 
....................  
.................... //////////////////// Hyperbolic functions //////////////////// 
....................  
.................... //////////////////////////////////////////////////////////////////////////// 
.................... //   float cosh(float x) 
.................... //////////////////////////////////////////////////////////////////////////// 
.................... // Description : Computes the hyperbolic cosine value of x 
.................... // Returns : returns the hyperbolic cosine value of x 
.................... // Date : N/A 
.................... // 
....................  
.................... float32 cosh(float32 x) 
.................... { 
....................    return ((exp(x)+exp(-x))*0.5); 
.................... } 
.................... //Overloaded functions for cosh() for PCD 
.................... // Overloaded function cosh() for data type - Float48 
.................... #if defined(__PCD__) 
.................... float48 cosh(float48 x) 
.................... { 
....................    return ((exp(x)+exp(-x))*0.5); 
.................... } 
....................  
.................... // Overloaded function cosh() for data type - Float64 
.................... float64 cosh(float64 x) 
.................... { 
....................    return ((exp(x)+exp(-x))*0.5); 
.................... } 
.................... #endif 
....................  
.................... //////////////////////////////////////////////////////////////////////////// 
.................... //   float sinh(float x) 
.................... //////////////////////////////////////////////////////////////////////////// 
.................... // Description : Computes the hyperbolic sine value of x 
.................... // Returns : returns the hyperbolic sine value of x 
.................... // Date : N/A 
.................... // 
....................  
.................... float32 sinh(float32 x) 
.................... { 
....................  
....................    return ((exp(x) - exp(-x))*0.5); 
.................... } 
.................... //Overloaded functions for sinh() for PCD 
.................... // Overloaded function sinh() for data type - Float48 
.................... #if defined(__PCD__) 
.................... float48 sinh(float48 x) 
.................... { 
....................  
....................    return ((exp(x) - exp(-x))*0.5); 
.................... } 
....................  
.................... // Overloaded function sinh() for data type - Float48 
.................... float64 sinh(float64 x) 
.................... { 
....................  
....................    return ((exp(x) - exp(-x))*0.5); 
.................... } 
.................... #endif 
....................  
.................... //////////////////////////////////////////////////////////////////////////// 
.................... //   float tanh(float x) 
.................... //////////////////////////////////////////////////////////////////////////// 
.................... // Description : Computes the hyperbolic tangent value of x 
.................... // Returns : returns the hyperbolic tangent value of x 
.................... // Date : N/A 
.................... // 
....................  
.................... float32 tanh(float32 x) 
.................... { 
....................    return(sinh(x)/cosh(x)); 
.................... } 
.................... //Overloaded functions for tanh() for PCD 
.................... // Overloaded function tanh() for data type - Float48 
.................... #if defined(__PCD__) 
.................... float48 tanh(float48 x) 
.................... { 
....................    return(sinh(x)/cosh(x)); 
.................... } 
....................  
.................... // Overloaded function tanh() for data type - Float64 
.................... float64 tanh(float64 x) 
.................... { 
....................    return(sinh(x)/cosh(x)); 
.................... } 
.................... #endif 
....................  
.................... //////////////////////////////////////////////////////////////////////////// 
.................... //   float frexp(float x, signed int *exp) 
.................... //////////////////////////////////////////////////////////////////////////// 
.................... // Description : breaks a floating point number into a normalized fraction and an integral 
.................... // power of 2. It stores the integer in the signed int object pointed to by exp. 
.................... // Returns : returns the value x, such that x is a double with magnitude in the interval 
.................... // [1/2,1) or zero, and value equals x times 2 raised to the power *exp.If value is zero, 
.................... // both parts of the result are zero. 
.................... // Date : N/A 
.................... // 
....................  
.................... #define LOG2 .30102999566398119521 
.................... #define LOG2_INV 3.32192809488736234787 
.................... float32 frexp(float32 x, signed int8 *exp) 
.................... { 
....................    float32 res; 
....................    int1 sign = 0; 
....................    if(x == 0.0) 
....................    { 
....................       *exp=0; 
....................       return (0.0); 
....................    } 
....................    if(x < 0.0) 
....................    { 
....................      x=-x; 
....................      sign=1; 
....................    } 
....................    if (x > 1.0) 
....................    { 
....................       *exp=(ceil(log10(x)*LOG2_INV)); 
....................       res=x/(pow(2, *exp)); 
....................       if (res == 1) 
....................       { 
....................          *exp=*exp+1; 
....................           res=.5; 
....................       } 
....................    } 
....................    else 
....................    { 
....................       if(x < 0.5) 
....................       { 
....................          *exp=-1; 
....................          res=x*2; 
....................       } 
....................       else 
....................       { 
....................          *exp=0; 
....................           res=x; 
....................       } 
....................    } 
....................    if(sign) 
....................    { 
....................       res=-res; 
....................    } 
....................    return res; 
.................... } 
....................  
.................... //Overloaded functions for frexp() for PCD 
.................... // Overloaded function frexp() for data type - Float48 
.................... #if defined(__PCD__) 
.................... float48 frexp(float48 x, signed int8 *exp) 
.................... { 
....................    float48 res; 
....................    int1 sign = 0; 
....................    if(x == 0.0) 
....................    { 
....................       *exp=0; 
....................       return (0.0); 
....................    } 
....................    if(x < 0.0) 
....................    { 
....................      x=-x; 
....................      sign=1; 
....................    } 
....................    if (x > 1.0) 
....................    { 
....................       *exp=(ceil(log10(x)*LOG2_INV)); 
....................       res=x/(pow(2, *exp)); 
....................       if (res == 1) 
....................       { 
....................          *exp=*exp+1; 
....................           res=.5; 
....................       } 
....................    } 
....................    else 
....................    { 
....................       if(x < 0.5) 
....................       { 
....................          *exp=-1; 
....................          res=x*2; 
....................       } 
....................       else 
....................       { 
....................          *exp=0; 
....................           res=x; 
....................       } 
....................    } 
....................    if(sign) 
....................    { 
....................       res=-res; 
....................    } 
....................    return res; 
.................... } 
....................  
.................... // Overloaded function frexp() for data type - Float64 
.................... float64 frexp(float64 x, signed int8 *exp) 
.................... { 
....................    float64 res; 
....................    int1 sign = 0; 
....................    if(x == 0.0) 
....................    { 
....................       *exp=0; 
....................       return (0.0); 
....................    } 
....................    if(x < 0.0) 
....................    { 
....................      x=-x; 
....................      sign=1; 
....................    } 
....................    if (x > 1.0) 
....................    { 
....................       *exp=(ceil(log10(x)*LOG2_INV)); 
....................       res=x/(pow(2, *exp)); 
....................       if (res == 1) 
....................       { 
....................          *exp=*exp+1; 
....................           res=.5; 
....................       } 
....................    } 
....................    else 
....................    { 
....................       if(x < 0.5) 
....................       { 
....................          *exp=-1; 
....................          res=x*2; 
....................       } 
....................       else 
....................       { 
....................          *exp=0; 
....................           res=x; 
....................       } 
....................    } 
....................    if(sign) 
....................    { 
....................       res=-res; 
....................    } 
....................    return res; 
.................... } 
.................... #endif 
....................  
.................... ////////////////////////////////////////////////////////////////////////////// 
.................... //   float ldexp(float x, signed int *exp) 
.................... ////////////////////////////////////////////////////////////////////////////// 
.................... // Description : multiplies a floating point number by an integral power of 2. 
.................... // Returns : returns the value of x times 2 raised to the power exp. 
.................... // Date : N/A 
.................... // 
....................  
.................... float32 ldexp(float32 value, signed int8 exp) 
.................... { 
....................    return (value * pow(2,exp)); 
.................... } 
.................... //Overloaded functions for ldexp() for PCD 
.................... // Overloaded function ldexp() for data type - Float48 
....................  
.................... #if defined(__PCD__) 
.................... float48 ldexp(float48 value, signed int8 exp) 
.................... { 
....................    return (value * pow(2,exp)); 
.................... } 
.................... // Overloaded function ldexp() for data type - Float64 
.................... float64 ldexp(float64 value, signed int8 exp) 
.................... { 
....................    return (value * pow(2,exp)); 
.................... } 
.................... #endif 
....................  
.................... #endif 
....................  
....................  
.................... #include <tv_03_32led_don.c>  
.................... //xxxxxxxxxxxxxxxxxxxxxxxxxxxxxxxxxxxxxxxxxxxxxxxxxxxxxxxx 
.................... //NGUYEN DINH PHU SU PHAM KY THUAT TP HCM 
.................... //xxxxxxxxxxxxxxxxxxxxxxxxxxxxxxxxxxxxxxxxxxxxxxxxxxxxxxxx 
.................... //xxxxxxxxxxxxxxxxxxxxxxxxxxxxxxxxxxxxxxxxxxxxxxxxxxxxxxxx 
.................... //ham 301: chuong trinh con xuat 4 byte ra 32 led don 
.................... //xxxxxxxxxxxxxxxxxxxxxxxxxxxxxxxxxxxxxxxxxxxxxxxxxxxxxxxx 
.................... void xuat_32led_don_4byte(usi8 bld3,bld2,bld1,bld0) 
.................... {      
....................    xuat_1byte(bld3);  xuat_1byte(bld2); 
....................    xuat_1byte(bld1);  xuat_1byte(bld0);             
....................                       
....................    output_high(rck_32led);     
....................    output_low(rck_32led);       
.................... } 
.................... //xxxxxxxxxxxxxxxxxxxxxxxxxxxxxxxxxxxxxxxxxxxxxxxxxxxxxxxx 
.................... //ham 302: chuong trinh con xuat 2 word 16 bitra 32 led don 
.................... //xxxxxxxxxxxxxxxxxxxxxxxxxxxxxxxxxxxxxxxxxxxxxxxxxxxxxxxx 
.................... void xuat_32led_don_2word(usi16 wld1,usi16 wld0) 
.................... {      
....................    unsigned int8  b3,b2,b1,b0; 
....................    b3 = wld1>>8;  b2 = wld1;  
....................    b1 = wld0>>8;  b0 = wld0; 
....................    xuat_32led_don_4byte(b3,b2,b1,b0); 
.................... } 
.................... //xxxxxxxxxxxxxxxxxxxxxxxxxxxxxxxxxxxxxxxxxxxxxxxxxxxxxxxx 
.................... //ham 303: chuong trinh con xuat 1 double word ra 32 led don 
.................... //xxxxxxxxxxxxxxxxxxxxxxxxxxxxxxxxxxxxxxxxxxxxxxxxxxxxxxxx 
.................... void xuat_32led_don_1dw(usi32 dwld) 
.................... {      
....................    unsigned int16  wd1,wd0; 
....................    wd1 = dwld>>16;  wd0 = dwld; 
....................    xuat_32led_don_2word(wd1,wd0); 
.................... } 
.................... //xxxxxxxxxxxxxxxxxxxxxxxxxxxxxxxxxxxxxxxxxxxxxxxxxxxxxxxx 
.................... //ham 304: chuong trinh con xuat 1 byte ra 32 led don 
.................... //xxxxxxxxxxxxxxxxxxxxxxxxxxxxxxxxxxxxxxxxxxxxxxxxxxxxxxxx 
.................... void xuat_32led_don_1byte(usi8 b0) 
.................... {      
....................    xuat_32led_don_4byte(0,0,0,b0); 
.................... }   
....................  
.................... #include <tv_04_4led_7doan.c>  
.................... //xxxxxxxxxxxxxxxxxxxxxxxxxxxxxxxxxxxxxxxxxxxxxxxxxxxxxxxx 
.................... //NGUYEN DINH PHU SU PHAM KY THUAT TP HCM 
.................... //xxxxxxxxxxxxxxxxxxxxxxxxxxxxxxxxxxxxxxxxxxxxxxxxxxxxxxxx 
....................  
.................... //xxxxxxxxxxxxxxxxxxxxxxxxxxxxxxxxxxxxxxxxxxxxxxxxxxxxxxxx 
.................... //khai bao mang va dnh nghia cac bien cho module 4led 7 doan 
.................... //xxxxxxxxxxxxxxxxxxxxxxxxxxxxxxxxxxxxxxxxxxxxxxxxxxxxxxxx 
.................... unsigned int8 dl_4l7d[4]= {0xff,0xff,0xff,0xff}; 
.................... #define ngan4  dl_4l7d[0] 
.................... #define tram4  dl_4l7d[1] 
.................... #define chuc4  dl_4l7d[2] 
.................... #define donvi4 dl_4l7d[3]             
....................                                            
.................... #define l7d_43 dl_4l7d[0] 
.................... #define l7d_42 dl_4l7d[1] 
.................... #define l7d_41 dl_4l7d[2] 
.................... #define l7d_40 dl_4l7d[3]             
.................... //xxxxxxxxxxxxxxxxxxxxxxxxxxxxxxxxxxxxxxxxxxxxxxxxxxxxxxxx 
.................... //ham 401: xuat 4 byte ra 4 led 7 doan 
.................... //xxxxxxxxxxxxxxxxxxxxxxxxxxxxxxxxxxxxxxxxxxxxxxxxxxxxxxxx 
.................... void xuat_4led_7doan_4so() 
.................... {                                                                   
....................    xuat_1byte(dl_4l7d[3]);    
....................    xuat_1byte(dl_4l7d[2]); 
....................    xuat_1byte(dl_4l7d[1]);    
....................    xuat_1byte(dl_4l7d[0]); 
....................                                     
....................    output_low(rck_4l7d);    
....................    output_high(rck_4l7d); 
.................... }                                                   
.................... //xxxxxxxxxxxxxxxxxxxxxxxxxxxxxxxxxxxxxxxxxxxxxxxxxxxxxxxx 
.................... //ham 402: giai ma so x 2 so, luu o led thu y, tuy chon xoa vn 
.................... //xxxxxxxxxxxxxxxxxxxxxxxxxxxxxxxxxxxxxxxxxxxxxxxxxxxxxxxx 
.................... void md4l7d_giaima_2so_vitri_vn(usi8 x,y, int1 xvn) 
.................... {                                         
....................    dl_4l7d[y]   = ma7doan[x%10];        
....................    dl_4l7d[y-1] = ma7doan[x/10%10];               
....................    if(xvn==true)                                                    
....................    {                                                            
....................       if(dl_4l7d[y-1]==maso0) dl_4l7d[y-1]=0xff;                                  
....................    }                                                       
.................... }  
.................... //xxxxxxxxxxxxxxxxxxxxxxxxxxxxxxxxxxxxxxxxxxxxxxxxxxxxxxxx 
.................... //ham 403: giai ma so x 3 so, luu o led thu y, tuy chon xoa vn 
.................... //xxxxxxxxxxxxxxxxxxxxxxxxxxxxxxxxxxxxxxxxxxxxxxxxxxxxxxxx   
.................... void md4l7d_giaima_3so_vitri_vn(usi16 x, usi8 y, int1 xvn) 
.................... {                                         
....................    dl_4l7d[y]   = ma7doan[x%10];        
....................    dl_4l7d[y-1] = ma7doan[x/10%10]; 
....................    dl_4l7d[y-2] = ma7doan[x/100%10]; 
....................    if(xvn==true)          
....................    { 
....................       if(dl_4l7d[y-2]==maso0) 
....................       {                                
....................          dl_4l7d[y-2]=0xff; 
....................          if(dl_4l7d[y-1]==maso0) dl_4l7d[y-1]=0xff; 
....................       } 
....................    }             
.................... } 
.................... //xxxxxxxxxxxxxxxxxxxxxxxxxxxxxxxxxxxxxxxxxxxxxxxxxxxxxxxx 
.................... //ham 404: giai ma so x 4 so, luu o led thu y, tuy chon xoa vn 
.................... //xxxxxxxxxxxxxxxxxxxxxxxxxxxxxxxxxxxxxxxxxxxxxxxxxxxxxxxx 
.................... void md4l7d_giaima_4so_vitri_vn(usi16 x, usi8 y, int1 xvn) 
.................... {                                         
....................    dl_4l7d[y]   = ma7doan[x%10];        
....................    dl_4l7d[y-1] = ma7doan[x/10%10]; 
....................    dl_4l7d[y-2] = ma7doan[x/100%10]; 
....................    dl_4l7d[y-3] = ma7doan[x/1000%10]; 
....................    if(xvn==true)                                   
....................    { 
....................       if(dl_4l7d[y-3]==maso0)  
....................       {                        
....................          dl_4l7d[y-3]=0xff; 
....................          if(dl_4l7d[y-2]==maso0)  
....................          { 
....................             dl_4l7d[y-2]=0xff;  
....................             if(dl_4l7d[y-1]==maso0) dl_4l7d[y-1]=0xff;    
....................          } 
....................       }                         
....................    }           
.................... }   
.................... //xxxxxxxxxxxxxxxxxxxxxxxxxxxxxxxxxxxxxxxxxxxxxxxxxxxxxxxx 
.................... //ham 405: giai ma so x 2 so, luu o led thu y, tuy chon xoa vn 
.................... //xxxxxxxxxxxxxxxxxxxxxxxxxxxxxxxxxxxxxxxxxxxxxxxxxxxxxxxx 
.................... void md4l7d_gma_so_bcd_vitri_vn(usi8 x,y, int1 xvn) 
.................... {                                         
....................    dl_4l7d[y]   = ma7doan[x%16];        
....................    dl_4l7d[y-1] = ma7doan[x/16];               
....................    if(xvn==true)                                                    
....................    {                                                            
....................       if(dl_4l7d[y-1]==maso0) dl_4l7d[y-1]=0xff;                                  
....................    }                                                       
.................... }  
.................... //xxxxxxxxxxxxxxxxxxxxxxxxxxxxxxxxxxxxxxxxxxxxxxxxxxxxxxxx 
.................... //ham 406: hien thi du lieu 2byte tren 4 led 7 doan 
.................... //xxxxxxxxxxxxxxxxxxxxxxxxxxxxxxxxxxxxxxxxxxxxxxxxxxxxxxxx 
.................... void xuat_4led_7doan_2so_4led (unsigned int8 bh,bl) 
.................... {          
....................    dl_4l7d[0] = ma7doan[bh/10%10]; 
....................    dl_4l7d[1] = ma7doan[bh%10];   
....................    dl_4l7d[2] = ma7doan[bl/10%10]; 
....................    dl_4l7d[3] = ma7doan[bl%10];  
....................    xuat_4led_7doan_4so(); 
.................... }                                  
....................  
.................... #include <tv_05_8led_7doan_quet.c>  
.................... //xxxxxxxxxxxxxxxxxxxxxxxxxxxxxxxxxxxxxxxxxxxxxxxxxxxxxxxx 
.................... //NGUYEN DINH PHU SU PHAM KY THUAT TP HCM 
.................... //xxxxxxxxxxxxxxxxxxxxxxxxxxxxxxxxxxxxxxxxxxxxxxxxxxxxxxxx 
.................... //xxxxxxxxxxxxxxxxxxxxxxxxxxxxxxxxxxxxxxxxxxxxxxxxxxxxxxxx 
.................... //ham 501: hien thi led theo thu tu 
.................... //xxxxxxxxxxxxxxxxxxxxxxxxxxxxxxxxxxxxxxxxxxxxxxxxxxxxxxxx 
.................... const unsigned int8 ma_quet[9]=  
....................    {0x7f,0xbf,0xdf,0xef,0xf7,0xfb,0xfd,0xfe,0xff};    
....................  
.................... void xuat_8led_7doan_quet(usi8 ttq,mht) 
.................... {                                                        
....................    xuat_1byte(~(ma_quet[ttq]));    
....................    xuat_1byte(~mht); 
....................  
....................    output_high(rck_8l7dq);  
....................    output_low(rck_8l7dq); 
.................... }                        
.................... //xxxxxxxxxxxxxxxxxxxxxxxxxxxxxxxxxxxxxxxxxxxxxxxxxxxxxxxx 
.................... //ham 502: xuat 2 byte ra tat 8 led quet 
.................... //xxxxxxxxxxxxxxxxxxxxxxxxxxxxxxxxxxxxxxxxxxxxxxxxxxxxxxxx 
.................... void tat_8led_7doan_quet() 
.................... { 
....................    xuat_8led_7doan_quet(8,0xff); 
.................... } 
.................... //xxxxxxxxxxxxxxxxxxxxxxxxxxxxxxxxxxxxxxxxxxxxxxxxxxxxxxxx 
.................... //ham 503: hien thi 8 so tren 8 led quet - khong kiem tra 
.................... //xxxxxxxxxxxxxxxxxxxxxxxxxxxxxxxxxxxxxxxxxxxxxxxxxxxxxxxx 
.................... unsigned int8 dl_8l7dq[8]={0xff,0xff,0xff,0xff,0xff,0xff,0xff,0xff}; 
....................                                                                 
.................... void hien_thi_8led_7doan_quet() 
.................... {      
....................    unsigned int8 ttl=0;                                       
....................    for(ttl=0;ttl<8;ttl++)          
....................    {              
....................       xuat_8led_7doan_quet(ttl,dl_8l7dq[ttl]); 
....................       delay_ms(1);   
....................       tat_8led_7doan_quet();                              
....................    } 
.................... }                                              
.................... //xxxxxxxxxxxxxxxxxxxxxxxxxxxxxxxxxxxxxxxxxxxxxxxxxxxxxxxx 
.................... //ham 504: giai ma 2 so x, vi tri y, tuy chon xoa vn 
.................... //xxxxxxxxxxxxxxxxxxxxxxxxxxxxxxxxxxxxxxxxxxxxxxxxxxxxxxxx 
.................... void md8l7d_gma_2so_vitri_vn(usi8 x,y,int1 xvn) 
.................... {                                         
....................    dl_8l7dq[y]   = ma7doan[x%10];        
....................    dl_8l7dq[y+1] = ma7doan[x/10%10];               
....................    if(xvn==true)                                                    
....................    {                                                            
....................       if(dl_8l7dq[y+1]==maso0) dl_8l7dq[y+1]=0xff;                                  
....................    }                                                       
.................... }   
.................... //xxxxxxxxxxxxxxxxxxxxxxxxxxxxxxxxxxxxxxxxxxxxxxxxxxxxxxxx 
.................... //ham 505: giai ma 3 so x, vi tri y, tuy chon xoa vn 
.................... //xxxxxxxxxxxxxxxxxxxxxxxxxxxxxxxxxxxxxxxxxxxxxxxxxxxxxxxx 
.................... void md8l7d_gma_3so_vitri_vn(usi16 x,usi8 y,int1 xvn) 
.................... {                                         
....................    dl_8l7dq[y]   = ma7doan[x%10];        
....................    dl_8l7dq[y+1] = ma7doan[x/10%10]; 
....................    dl_8l7dq[y+2] = ma7doan[x/100%10]; 
....................    if(xvn==true)          
....................    {        
....................       if(dl_8l7dq[y+2]==maso0) 
....................       {                                
....................          dl_8l7dq[y+2]=0xff; 
....................          if(dl_8l7dq[y+1]==maso0) dl_8l7dq[y+1]=0xff; 
....................       } 
....................    }             
.................... }  
.................... //xxxxxxxxxxxxxxxxxxxxxxxxxxxxxxxxxxxxxxxxxxxxxxxxxxxxxxxx 
.................... //ham 506: giai ma 4 so x, vi tri y, tuy chon xoa vn 
.................... //xxxxxxxxxxxxxxxxxxxxxxxxxxxxxxxxxxxxxxxxxxxxxxxxxxxxxxxx 
.................... void md8l7d_gma_4so_vitri_vn(usi16 x,usi8 y,int1 xvn) 
.................... {                                         
....................    dl_8l7dq[y]   = ma7doan[x%10];        
....................    dl_8l7dq[y+1] = ma7doan[x/10%10]; 
....................    dl_8l7dq[y+2] = ma7doan[x/100%10]; 
....................    dl_8l7dq[y+3] = ma7doan[x/1000%10]; 
....................    if(xvn==true)                                   
....................    { 
....................       if(dl_8l7dq[y+3]==maso0)  
....................       { 
....................          dl_8l7dq[y+3]=0xff; 
....................          if(dl_8l7dq[y+2]==maso0)  
....................          { 
....................             dl_8l7dq[y+2]=0xff;  
....................             if(dl_8l7dq[y+1]==maso0) dl_8l7dq[y+1]=0xff;    
....................          } 
....................       }                         
....................    }           
.................... }    
.................... //xxxxxxxxxxxxxxxxxxxxxxxxxxxxxxxxxxxxxxxxxxxxxxxxxxxxxxxx 
.................... //ham 507: giai ma 2 so bcd x, tai vi tri y, xoa vn: y/n 
.................... //xxxxxxxxxxxxxxxxxxxxxxxxxxxxxxxxxxxxxxxxxxxxxxxxxxxxxxxx 
.................... void md8l7d_gma_so_bcd_vitri_vn(usi8 x,y,int1 xvn) 
.................... {                                         
....................    dl_8l7dq[y]   = ma7doan[x%16];        
....................    dl_8l7dq[y+1] = ma7doan[x/16];               
....................    if(xvn==true)                                                    
....................    {                                                            
....................       if(dl_8l7dq[y+1]==maso0) dl_8l7dq[y+1]=0xff;                                  
....................    }    
.................... }                
.................... //xxxxxxxxxxxxxxxxxxxxxxxxxxxxxxxxxxxxxxxxxxxxxxxxxxxxxxxx 
.................... //ham 508: hien thi 8 so tren 8 led quet voi so lan dl 
.................... //xxxxxxxxxxxxxxxxxxxxxxxxxxxxxxxxxxxxxxxxxxxxxxxxxxxxxxxx 
.................... void delay_quet_8led(unsigned int16 dl) 
.................... {                                 
....................    unsigned int16 i;            
....................    for(i=0;i<dl;i++) 
....................    hien_thi_8led_7doan_quet();         
.................... }  
....................  
.................... #include <tv_05_i2c_ds13_pcf.c> 
.................... //xxxxxxxxxxxxxxxxxxxxxxxxxxxxxxxxxxxxxxxxxxxxxxxxxxxxxxxx 
.................... //NGUYEN DINH PHU SU PHAM KY THUAT TP HCM 
.................... //xxxxxxxxxxxxxxxxxxxxxxxxxxxxxxxxxxxxxxxxxxxxxxxxxxxxxxxx 
.................... //xxxxxxxxxxxxxxxxxxxxxxxxxxxxxxxxxxxxxxxxxxxxxxxxxxxxxxxx 
.................... //dinh nghia dia chi ghi va dia chi doc ds1307 
.................... //xxxxxxxxxxxxxxxxxxxxxxxxxxxxxxxxxxxxxxxxxxxxxxxxxxxxxxxx                     
.................... #define ds13_addr_wr 0xd0 
.................... #define ds13_addr_rd 0xd1 
....................  
.................... //xxxxxxxxxxxxxxxxxxxxxxxxxxxxxxxxxxxxxxxxxxxxxxxxxxxxxxxx   
.................... //khai bao 2 mang:  
.................... //mang ghi: giay-phut-gio-thu-ngay-thang-nam-madk_msds   
.................... //mang doc: giay-phut-gio-thu-ngay-thang-nam-madk_msds   
.................... //xxxxxxxxxxxxxxxxxxxxxxxxxxxxxxxxxxxxxxxxxxxxxxxxxxxxxxxx       
.................... usi8 time_w[9]={0x30,0x33,0x15,0x03,0x16,0x02,0x21,0x90,0x92};   
.................... usi8 time_r[9]={0x30,0x30,0x10,0x08,0x20,0x02,0x20,0x90,0x96}; 
.................... #define giay_ds  time_r[0]               
.................... #define phut_ds  time_r[1]                   
.................... #define gio_ds   time_r[2] 
.................... #define thu_ds   time_r[3] 
.................... #define ngay_ds  time_r[4] 
.................... #define thang_ds time_r[5]                   
.................... #define nam_ds   time_r[6] 
....................  
.................... #define ma_qd   time_w[8]  
.................... #define ma_ds   time_r[8]                                        
.................... //xxxxxxxxxxxxxxxxxxxxxxxxxxxxxxxxxxxxxxxxxxxxxxxxxxxxxxxx   
.................... //cap nhat time: giay-phut-gio-thu-ngay-thang-nam-madk_msds   
.................... //xxxxxxxxxxxxxxxxxxxxxxxxxxxxxxxxxxxxxxxxxxxxxxxxxxxxxxxx  
.................... void ds1307_cap_nhat_time(int1 sel)                  
.................... {          
....................    usi8 i;    
....................    i2c_start(); 
....................    i2c_write(ds13_addr_wr);         
....................    i2c_write(0x00);     
....................    for(i=0;i<9;i++)                           
....................    {   
....................       if(sel)  i2c_write(time_w[i]); 
....................       else     i2c_write(time_r[i]); 
....................    }                                  
....................    i2c_stop();         
.................... }                       
.................... //xxxxxxxxxxxxxxxxxxxxxxxxxxxxxxxxxxxxxxxxxxxxxxxxxxxxxxxx   
.................... //doc thoi gian    
.................... //xxxxxxxxxxxxxxxxxxxxxxxxxxxxxxxxxxxxxxxxxxxxxxxxxxxxxxxx                              
.................... void ds1307_doc_time(usi8 j)      
.................... {    
....................    usi8 i;  
....................    i2c_start(); 
....................    i2c_write(ds13_addr_wr); 
....................    i2c_write(0x00);                      
....................    i2c_start();                 
....................                  
....................    i2c_write(ds13_addr_rd);                               
....................    for(i=0;i<j;i++) time_r[i]=i2c_read();   
....................                                   
....................    i = i2c_read(0); //not ack, don't care i   
....................    i2c_stop(); 
.................... }                                                                        
.................... //xxxxxxxxxxxxxxxxxxxxxxxxxxxxxxxxxxxxxxxxxxxxxxxxxxxxxxxx   
.................... //kiem tra ma da luu: sai thi cap nhat, dung thi thoat 
.................... //xxxxxxxxxxxxxxxxxxxxxxxxxxxxxxxxxxxxxxxxxxxxxxxxxxxxxxxx            
.................... void ds1307_kiem_tra_ma()                                
.................... {                                               
....................    ds1307_doc_time(9);           
....................    if(ma_qd!=ma_ds)    
....................    { 
....................       ds1307_cap_nhat_time(1); 
....................    } 
.................... }  
.................... void ds1307_luu_vao_ds(usi8 dcdt,dt)                  
.................... {            
....................    i2c_start(); 
....................    i2c_write(ds13_addr_wr);         
....................    i2c_write(dcdt);     
....................    i2c_write(dt); 
....................    i2c_stop();         
.................... } 
....................  
.................... //xxxxxxxxxxxxxxxxxxxxxxxxxxxxxxxxxxxxxxxxxxxxxxxxxxxxxxxx    
.................... //xxxxxxxxxxxxxxxxxxxxxxxxxxxxxxxxxxxxxxxxxxxxxxxxxxxxxxxx 
.................... //thu vien cua pcf8591: 4adc:2lm35, joystick, 1dac: led 
.................... //step size bang 5 
.................... //xxxxxxxxxxxxxxxxxxxxxxxxxxxxxxxxxxxxxxxxxxxxxxxxxxxxxxxx    
.................... //xxxxxxxxxxxxxxxxxxxxxxxxxxxxxxxxxxxxxxxxxxxxxxxxxxxxxxxx    
.................... #define  pcf_addr_wr  0x90                     
.................... #define  pcf_addr_rd  0x91 
....................                                                     
.................... #define  pcf_chan0 0x40 
.................... #define  pcf_chan1 0x41 
.................... #define  pcf_chan2 0x42 
.................... #define  pcf_chan3 0x43 
.................... //xxxxxxxxxxxxxxxxxxxxxxxxxxxxxxxxxxxxxxxxxxxxxxxxxxxxxxxx   
.................... //ham thiet lap kenh 
.................... //xxxxxxxxxxxxxxxxxxxxxxxxxxxxxxxxxxxxxxxxxxxxxxxxxxxxxxxx                                     
.................... void pcf_channel(usi8 chan) 
.................... {                                   
....................    i2c_start(); 
....................    i2c_write(pcf_addr_wr); 
....................    i2c_write(chan);       
....................    i2c_stop(); 
.................... } 
.................... //xxxxxxxxxxxxxxxxxxxxxxxxxxxxxxxxxxxxxxxxxxxxxxxxxxxxxxxx   
.................... //ham vua chon kenh, vua xuat du lieu ra DAC 
.................... //xxxxxxxxxxxxxxxxxxxxxxxxxxxxxxxxxxxxxxxxxxxxxxxxxxxxxxxx  
.................... void pcf_xuat_dac(usi8 dac_out) 
.................... { 
....................    i2c_start();                      
....................    i2c_write(pcf_addr_wr); 
....................    i2c_write(pcf_chan0); 
....................    i2c_write(dac_out); 
....................    i2c_stop();              
.................... }                     
.................... //xxxxxxxxxxxxxxxxxxxxxxxxxxxxxxxxxxxxxxxxxxxxxxxxxxxxxxxx   
.................... //ham thiet lap kenh va doc ket qua cua lan truoc  
.................... //xxxxxxxxxxxxxxxxxxxxxxxxxxxxxxxxxxxxxxxxxxxxxxxxxxxxxxxx  
.................... usi8 pcf_doc_adc(usi8 ch) 
.................... {     
....................    usi8 kq;  
....................    kq=0;   
....................    pcf_channel(ch); 
....................    i2c_start();                            
....................    i2c_write(pcf_addr_rd);         
....................    kq= i2c_read(0); 
....................    i2c_stop();        
....................    return kq; 
.................... } 
.................... //xxxxxxxxxxxxxxxxxxxxxxxxxxxxxxxxxxxxxxxxxxxxxxxxxxxxxxxx   
.................... //ham doc kenh, so lan  
.................... //xxxxxxxxxxxxxxxxxxxxxxxxxxxxxxxxxxxxxxxxxxxxxxxxxxxxxxxx  
.................... usi8 pcf_doc_chan(usi8 chan, usi8 solan)                                      
.................... {  
....................    unsigned int16 pcf; 
....................    usi8 i;            
....................    pcf = 0;      
....................    for(i=0;i<solan;i++)             
....................    { 
....................       delay_us(30);                               
....................       pcf=pcf + pcf_doc_adc(chan);               
....................    }                                               
....................    pcf = pcf/solan;    
....................    return (pcf%256); 
.................... } 
....................  
....................                                                                  
....................  
.................... #include <tv_06_lcd_glcd.c>  //xuat du lieu                                             
.................... //xxxxxxxxxxxxxxxxxxxxxxxxxxxxxxxxxxxxxxxxxxxxxxxxxxxxxxxx 
.................... //NGUYEN DINH PHU SU PHAM KY THUAT TP HCM 
.................... //xxxxxxxxxxxxxxxxxxxxxxxxxxxxxxxxxxxxxxxxxxxxxxxxxxxxxxxx 
....................  
.................... //xxxxxxxxxxxxxxxxxxxxxxxxxxxxxxxxxxxxxxxxxxxxxxxxxxxxxxxx     
.................... //khai bao: mang 4 byte ra glcd va lcd 
.................... //xxxxxxxxxxxxxxxxxxxxxxxxxxxxxxxxxxxxxxxxxxxxxxxxxxxxxxxx   
.................... unsigned int8 g_lcd[4]={0,0,0,0};  
.................... #define glcd_ct g_lcd[0] 
.................... #define glcd_dt g_lcd[1] 
.................... #define lcd_ct  g_lcd[2]      
.................... #define lcd_dt  g_lcd[3] 
.................... //xxxxxxxxxxxxxxxxxxxxxxxxxxxxxxxxxxxxxxxxxxxxxxxxxxxxxxxx     
.................... //ham 601: xuat du lieu 4 byte ra glcd va lcd 
.................... //xxxxxxxxxxxxxxxxxxxxxxxxxxxxxxxxxxxxxxxxxxxxxxxxxxxxxxxx  
.................... void xuat_glcd_lcd() 
.................... {                                                   
....................    xuat_1byte(glcd_ct); xuat_1byte(glcd_dt); 
....................    xuat_1byte(lcd_ct);  xuat_1byte(lcd_dt);        
....................           
....................    output_high(rck_lcd);      
....................    output_low(rck_lcd);                           
.................... } 
.................... //xxxxxxxxxxxxxxxxxxxxxxxxxxxxxxxxxxxxxxxxxxxxxxxxxxxxxxxx     
.................... //ham 602: ham xuat 2 byte ra lcd  
.................... //xxxxxxxxxxxxxxxxxxxxxxxxxxxxxxxxxxxxxxxxxxxxxxxxxxxxxxxx  
.................... void xuat_lcd(usi8 lcd_ctr,lcd_dta) 
.................... {      
....................    lcd_ct = ~lcd_ctr;        
....................    lcd_dt = ~lcd_dta;       
....................    xuat_glcd_lcd(); 
.................... } 
.................... //xxxxxxxxxxxxxxxxxxxxxxxxxxxxxxxxxxxxxxxxxxxxxxxxxxxxxxxx     
.................... //ham 603: ham xuat 2 byte ra glcd  
.................... //xxxxxxxxxxxxxxxxxxxxxxxxxxxxxxxxxxxxxxxxxxxxxxxxxxxxxxxx  
.................... void xuat_glcd(usi8 glcd_ctr,glcd_dta) 
.................... {      
....................    glcd_ct = ~glcd_ctr;      
....................    glcd_dt = ~glcd_dta;      
....................    xuat_glcd_lcd(); 
.................... } 
....................  
.................... #include <tv_06_lcd.c>       //cac ham lcd   
.................... //xxxxxxxxxxxxxxxxxxxxxxxxxxxxxxxxxxxxxxxxxxxxxxxxxxxxxxxx 
.................... //NGUYEN DINH PHU SU PHAM KY THUAT TP HCM 
.................... //xxxxxxxxxxxxxxxxxxxxxxxxxxxxxxxxxxxxxxxxxxxxxxxxxxxxxxxx 
....................  
.................... //xxxxxxxxxxxxxxxxxxxxxxxxxxxxxxxxxxxxxxxxxxxxxxxxxxxxxxxx 
.................... //dinh nghia bien dieu khien LCD va cac bit cua bien 
.................... //xxxxxxxxxxxxxxxxxxxxxxxxxxxxxxxxxxxxxxxxxxxxxxxxxxxxxxxx   
.................... unsigned int8 lcd_ctrl = 0xff;                      
.................... #bit lcd_p  = lcd_ctrl.3                                        
.................... #bit lcd_rs = lcd_ctrl.2 
.................... #bit lcd_rw = lcd_ctrl.1                                           
.................... #bit lcd_e  = lcd_ctrl.0              
....................                                                             
.................... //xxxxxxxxxxxxxxxxxxxxxxxxxxxxxxxxxxxxxxxxxxxxxxxxxxxxxxxx 
.................... //Dinh nghia cac lenh dieu khien cua LCD 
.................... //xxxxxxxxxxxxxxxxxxxxxxxxxxxxxxxxxxxxxxxxxxxxxxxxxxxxxxxx   
.................... #define lcd_clear_display      0x01     
.................... #define lcd_cursor_home        0x02                                                                                  
.................... //Lenh function set co nhieu bit lua chon 
.................... #define lcd_fs_function_set    0x20   //constant  
.................... #define fs_8bit                0x10                 
.................... #define fs_2line               0x08 
.................... #define fs_5x10                0x04 
.................... //Lenh dieu khien hien thi  
.................... #define lcd_dc_display_control 0x08  //constant 
.................... #define dc_display_on          0x04   
.................... #define dc_cursor_on           0x02 
.................... #define dc_blink_on            0x01                                                           
.................... //Lenh display entry mode */   
.................... #define lcd_em_entry_mode      0x04  //constant  
.................... #define em_shift_inc           0x01                       
.................... #define em_left                0x02                                                 
....................  
.................... /* Flags for display/cursor shift */                            
.................... #define lcd_cd_cursor_display  0x10   //constant               
.................... #define cd_display_move        0x08 
.................... #define cd_move_right          0x04 
....................  
.................... #define lcd_shift_left         0x18  
.................... #define lcd_shift_lright       0x1C  
....................  
.................... #define lcd_ddram_addr         0x80 
.................... #define lcd_cgram_addr         0x40 
.................... //xxxxxxxxxxxxxxxxxxxxxxxxxxxxxxxxxxxxxxxxxxxxxxxxxxxxxxxx   
.................... void lcd_goto_xy(usi8 x,usi8 y); 
.................... void lcd_xuat_8bit(int8 db); 
.................... void lcd_command(int8 db); 
.................... void lcd_data(int8 db); 
.................... void lcd_puts(usi8 x, usi8 y, char* str);                  
.................... void lcd_setup();                                         
.................... //xxxxxxxxxxxxxxxxxxxxxxxxxxxxxxxxxxxxxxxxxxxxxxxxxxxxxxxx   
.................... //ham 604: ham xuat 8bit ra lcd 
.................... //xxxxxxxxxxxxxxxxxxxxxxxxxxxxxxxxxxxxxxxxxxxxxxxxxxxxxxxx   
.................... void lcd_xuat(int8 db)  
.................... {                                                      
....................    lcd_e=1; xuat_lcd(lcd_ctrl,db);    
....................    //delay_us(20);                        
....................    lcd_e=0; xuat_lcd(lcd_ctrl,db);      
.................... }                                                               
.................... //xxxxxxxxxxxxxxxxxxxxxxxxxxxxxxxxxxxxxxxxxxxxxxxxxxxxxxxx     
.................... //ham 605: ham xuat ma lenh dk lcd 
.................... //xxxxxxxxxxxxxxxxxxxxxxxxxxxxxxxxxxxxxxxxxxxxxxxxxxxxxxxx  
.................... void lcd_command(int8 db)    
.................... { 
....................    lcd_rs = 0; lcd_xuat(db);                                        
.................... } 
.................... //xxxxxxxxxxxxxxxxxxxxxxxxxxxxxxxxxxxxxxxxxxxxxxxxxxxxxxxx   
.................... //ham 606: ham xuat du lieu ra lcd 
.................... //xxxxxxxxxxxxxxxxxxxxxxxxxxxxxxxxxxxxxxxxxxxxxxxxxxxxxxxx  
.................... void lcd_data(int8 db)        
.................... { 
....................    lcd_rs = 1; lcd_xuat(db); 
.................... }                                         
.................... //xxxxxxxxxxxxxxxxxxxxxxxxxxxxxxxxxxxxxxxxxxxxxxxxxxxxxxxx   
.................... //ham 607: ham khoi tao lcd 
.................... //xxxxxxxxxxxxxxxxxxxxxxxxxxxxxxxxxxxxxxxxxxxxxxxxxxxxxxxx  
.................... void lcd_setup() 
.................... {                      
....................    lcd_e  = 0;   lcd_rw = 0;  
....................    lcd_rs = 1;   lcd_p  = 0; 
....................    lcd_command(lcd_fs_function_set|fs_8bit|fs_2line);          
....................    delay_us(40);   
....................    lcd_command(lcd_dc_display_control|dc_display_on);    
....................    delay_us(40); 
....................    lcd_command(lcd_clear_display);       
....................    delay_ms(2);       
....................    lcd_command(lcd_em_entry_mode|em_left);        
....................    delay_us(40);                 
.................... }             
.................... //xxxxxxxxxxxxxxxxxxxxxxxxxxxxxxxxxxxxxxxxxxxxxxxxxxxxxxxx   
.................... //ham 608: di chuyen con tro den toa do x,y 
.................... //xxxxxxxxxxxxxxxxxxxxxxxxxxxxxxxxxxxxxxxxxxxxxxxxxxxxxxxx  
.................... void lcd_goto_xy(usi8 x,usi8 y)  
.................... {                       
....................    const unsigned int8 lcd_vitri[]={0x80,0xc0,0x94,0xd4}; 
....................    lcd_command(lcd_vitri[x]+y);    //delay_us(20); 
.................... }  
.................... //xxxxxxxxxxxxxxxxxxxxxxxxxxxxxxxxxxxxxxxxxxxxxxxxxxxxxxxx            
.................... //ham 609: ham xoa man hinh LCD 
.................... //xxxxxxxxxxxxxxxxxxxxxxxxxxxxxxxxxxxxxxxxxxxxxxxxxxxxxxxx  
.................... void lcd_clear()  
.................... {                       
....................    lcd_command(lcd_clear_display);       
....................    delay_ms(2); 
.................... }  
.................... //xxxxxxxxxxxxxxxxxxxxxxxxxxxxxxxxxxxxxxxxxxxxxxxxxxxxxxxx 
.................... //ham 609: ham mo den backlight lcd  
.................... //xxxxxxxxxxxxxxxxxxxxxxxxxxxxxxxxxxxxxxxxxxxxxxxxxxxxxxxx   
.................... void lcd_back_light_on() 
.................... { 
....................    lcd_p = 0; xuat_lcd(lcd_ctrl,0x00);    
.................... } 
.................... //xxxxxxxxxxxxxxxxxxxxxxxxxxxxxxxxxxxxxxxxxxxxxxxxxxxxxxxx 
.................... //ham 610: tat den backlight lcd  
.................... //xxxxxxxxxxxxxxxxxxxxxxxxxxxxxxxxxxxxxxxxxxxxxxxxxxxxxxxx   
.................... void lcd_back_light_off() 
.................... { 
....................    lcd_p = 1;  xuat_lcd(lcd_ctrl,0x00);     
.................... } 
.................... //xxxxxxxxxxxxxxxxxxxxxxxxxxxxxxxxxxxxxxxxxxxxxxxxxxxxxxxx   
.................... //ham 611: hien thi mang trn lcd tai x,y (hang,cot) 
.................... //xxxxxxxxxxxxxxxxxxxxxxxxxxxxxxxxxxxxxxxxxxxxxxxxxxxxxxxx  
.................... void lcd_puts(usi8 x, usi8 y, unsigned  char* str)  
.................... {                  
....................    while (*str)  
....................    { 
....................       if(y>=20)  
....................       { 
....................          y = 0;   x++; 
....................       } 
....................       if(x>=4) x = 0; 
....................       lcd_goto_xy(x,y);       
....................       if (*str == '\n')  
....................       {                    
....................          x++; 
....................          lcd_goto_xy(x,y); 
....................       }  
....................       else if (*str == '\r')  
....................       { 
....................          lcd_goto_xy(0,y); 
....................       }  
....................       else  
....................          { 
....................             lcd_data(*str); 
....................             y++;                       
....................              
....................          } 
....................       str++; 
....................    } 
.................... } 
.................... //xxxxxxxxxxxxxxxxxxxxxxxxxxxxxxxxxxxxxxxxxxxxxxxxxxxxxxxx   
.................... //mang so to cua LCD 
.................... //xxxxxxxxxxxxxxxxxxxxxxxxxxxxxxxxxxxxxxxxxxxxxxxxxxxxxxxx  
.................... const unsigned int8 lcd_so_to[10][6] ={ 
....................                   0,1,2,4,3,5,    // so 0 
....................                   1,2,32,3,7,3,   // so 1 
....................                   6,6,2,4,3,3,    // so 2 
....................                   6,6,2,3,3,5,    // so 3 
....................                   7,3,7,32,32,7,  // so 4 
....................                   7,6,6,3,3,5,    // so 5                                
....................                   0,6,6,4,3,5,    // so 6 
....................                   1,1,7,32,32,7,  // so 7 
....................                   0,6,2,4,3,5,    // so 8 
....................                   0,6,2,3,3,5};   // so 9 
.................... //xxxxxxxxxxxxxxxxxxxxxxxxxxxxxxxxxxxxxxxxxxxxxxxxxxxxxxxx   
.................... //mang tung doan so to cua LCD 
.................... //xxxxxxxxxxxxxxxxxxxxxxxxxxxxxxxxxxxxxxxxxxxxxxxxxxxxxxxx                    
.................... const unsigned int8 lcd_ma_8doan[] = { 
....................    0x07,0x0f,0x1f,0x1f,0x1f,0x1f,0x1f,0x1f,  //doan f - 0 
....................    0x1f,0x1f,0x1f,0x00,0x00,0x00,0x00,0x00,  //doan a - 1 
....................    0x1c,0x1e,0x1f,0x1f,0x1f,0x1f,0x1f,0x1f,  //doan b - 2 
....................    0x00,0x00,0x00,0x00,0x00,0x1f,0x1f,0x1f,  //doan d - 3 
....................    0x1f,0x1f,0x1f,0x1f,0x1f,0x1f,0x0f,0x07,  //doan e - 4 
....................    0x1f,0x1f,0x1f,0x1f,0x1f,0x1f,0x1e,0x1c,  //doan c - 5       
....................    0x1f,0x1f,0x1f,0x00,0x00,0x00,0x1f,0x1f,  //doan g+d-6  
....................    0x1f,0x1f,0x1f,0x1f,0x1f,0x1f,0x1f,0x1f}; //doan i  -7      
.................... //xxxxxxxxxxxxxxxxxxxxxxxxxxxxxxxxxxxxxxxxxxxxxxxxxxxxxxxx   
.................... //ham 612: copy mang so to vao cgram 
.................... //xxxxxxxxxxxxxxxxxxxxxxxxxxxxxxxxxxxxxxxxxxxxxxxxxxxxxxxx                                   
.................... void lcd_khoi_tao_cgram_so_to()                                                   
.................... {                                                                       
....................    usi8 i; 
....................    lcd_command(lcd_cgram_addr); 
....................    for(i=0;i<64;i++)   
....................      lcd_data(lcd_ma_8doan[i]);   
.................... }          
.................... //xxxxxxxxxxxxxxxxxxxxxxxxxxxxxxxxxxxxxxxxxxxxxxxxxxxxxxxx   
.................... //ham 613: hien thi so to tai toa do x,y 
.................... //xxxxxxxxxxxxxxxxxxxxxxxxxxxxxxxxxxxxxxxxxxxxxxxxxxxxxxxx  
.................... void lcd_hien_thi_so_to(si8 so, x, y)  
.................... {                         
....................    usi8 i; 
....................    lcd_goto_xy(x,y); 
....................    for(i=0;i<6;i++) 
....................    {                                                            
....................       if(i==3) lcd_goto_xy(x+1,y); 
....................       lcd_data(lcd_so_to[so][i]); 
....................    }                         
.................... }    
....................     
.................... //xxxxxxxxxxxxxxxxxxxxxxxxxxxxxxxxxxxxxxxxxxxxxxxxxxxxxxxx   
.................... //ham 614: xoa so to tai toa do x,y 
.................... //xxxxxxxxxxxxxxxxxxxxxxxxxxxxxxxxxxxxxxxxxxxxxxxxxxxxxxxx  
.................... void lcd_xoa_so_to(si8 x, y) 
.................... {   
....................    usi8 i; 
....................    lcd_goto_xy(x,y);          
....................    for(i=0;i<6;i++)  
....................    {             
....................       if(i==3) lcd_goto_xy(x+1,y);     
....................       lcd_data(' '); 
....................    } 
.................... }  
.................... //xxxxxxxxxxxxxxxxxxxxxxxxxxxxxxxxxxxxxxxxxxxxxxxxxxxxxxxx   
.................... //ham 615: hien thi so hex toa do x,y 
.................... //xxxxxxxxxxxxxxxxxxxxxxxxxxxxxxxxxxxxxxxxxxxxxxxxxxxxxxxx  
.................... void lcd_hthi_byte(usi8 sh,x,y)  
.................... {   
....................    usi8 bh,bl; 
....................    lcd_goto_xy(x,y); 
....................    bh=sh/16; bl=sh%16;                                                 
....................    if(bh>9) lcd_data(bh+0x37); 
....................    else     lcd_data(bh+0x30); 
....................    if(bl>9) lcd_data(bl+0x37); 
....................    else     lcd_data(bl+0x30); 
.................... }  
.................... //xxxxxxxxxxxxxxxxxxxxxxxxxxxxxxxxxxxxxxxxxxxxxxxxxxxxxxxx   
.................... //ham 616: giai ma hien thi 2 so tai toa do x,y 
.................... //xxxxxxxxxxxxxxxxxxxxxxxxxxxxxxxxxxxxxxxxxxxxxxxxxxxxxxxx  
.................... void lcd_gm_ht_2so_nho_xvn(usi16 so,usi8 x,usi8 y,int1 xvn)       
.................... {                            
....................    usi8 ch,dv;           
....................    lcd_goto_xy(x,y);                    
....................    ch = so/10%10+0x30;  dv = so%10+0x30; 
....................    if(xvn)  
....................    { 
....................       if(ch==0x30) ch=" "; 
....................    } 
....................    lcd_data(ch);   
....................    lcd_data(dv);    
.................... } 
.................... //xxxxxxxxxxxxxxxxxxxxxxxxxxxxxxxxxxxxxxxxxxxxxxxxxxxxxxxx   
.................... //ham 617: giai ma hien thi 3 so tai toa do x,y 
.................... //xxxxxxxxxxxxxxxxxxxxxxxxxxxxxxxxxxxxxxxxxxxxxxxxxxxxxxxx  
.................... void lcd_gm_ht_3so_nho_xvn(usi16 so,usi8 x,usi8 y,int1 xvn)       
.................... {                            
....................    usi8 tr,ch,dv;           
....................    lcd_goto_xy(x,y);                    
....................    tr = so/100%10+0x30;  
....................    ch = so/10%10+0x30;         
....................    dv = so%10+0x30; 
....................    if(xvn)  
....................    { 
....................       if(tr==0x30) 
....................       {      
....................          tr=" "; 
....................          if(ch==0x30) ch=" "; 
....................       } 
....................    } 
....................    lcd_data(tr);     
....................    lcd_data(ch);   
....................    lcd_data(dv);    
.................... } 
.................... //xxxxxxxxxxxxxxxxxxxxxxxxxxxxxxxxxxxxxxxxxxxxxxxxxxxxxxxx   
.................... //ham 618: giai ma hien thi 4 so tai toa do x,y 
.................... //xxxxxxxxxxxxxxxxxxxxxxxxxxxxxxxxxxxxxxxxxxxxxxxxxxxxxxxx  
.................... void lcd_gm_ht_4so_nho_xvn(usi16 so,usi8 x,usi8 y,int1 xvn)       
.................... {                            
....................    usi8 ng,tr,ch,dv;           
....................    lcd_goto_xy(x,y);                 
....................    ng = so/1000%10+0x30;     
....................    tr = so/100%10+0x30;  
....................    ch = so/10%10+0x30;         
....................    dv = so%10+0x30; 
....................    if(xvn)  
....................    { 
....................       if(ng==0x30) 
....................       {   
....................          ng=" "; 
....................          if(tr==0x30) 
....................          {      
....................             tr=" "; 
....................             if(ch==0x30) ch=" "; 
....................          } 
....................       } 
....................    } 
....................    lcd_data(ng);  lcd_data(tr);     
....................    lcd_data(ch);  lcd_data(dv);    
.................... } 
.................... //xxxxxxxxxxxxxxxxxxxxxxxxxxxxxxxxxxxxxxxxxxxxxxxxxxxxxxxx   
.................... //ham 619: giai ma hien thi 5 so tai toa do x,y 
.................... //xxxxxxxxxxxxxxxxxxxxxxxxxxxxxxxxxxxxxxxxxxxxxxxxxxxxxxxx  
.................... void lcd_gm_ht_5so_nho_xvn(usi16 so,usi8 x,usi8 y)       
.................... {                            
....................    usi8 cn,ng,tr,ch,dv;           
....................    lcd_goto_xy(x,y); 
....................    cn = so/10000%10+0x30;     
....................    ng = so/1000%10+0x30;     
....................    tr = so/100%10+0x30;  
....................    ch = so/10%10+0x30;         
....................    dv = so%10+0x30; 
....................    if(cn==0x30) 
....................    { 
....................      cn=" "; 
....................      if(ng==0x30) 
....................       {   
....................         ng=" "; 
....................         if(tr==0x30) 
....................         {      
....................         tr=" "; 
....................         if(ch==0x30) ch=" "; 
....................       } 
....................       } 
....................    } 
....................    lcd_data(cn); 
....................    lcd_data(ng);  lcd_data(tr);     
....................    lcd_data(ch);  lcd_data(dv);    
.................... } 
.................... //xxxxxxxxxxxxxxxxxxxxxxxxxxxxxxxxxxxxxxxxxxxxxxxxxxxxxxxx   
.................... //ham 620: giai ma hien thi 2 so to tai toa do x,y 
.................... //xxxxxxxxxxxxxxxxxxxxxxxxxxxxxxxxxxxxxxxxxxxxxxxxxxxxxxxx  
.................... void lcd_gm_ht_2so_to_xvn(usi16 so,usi8 x,usi8 y,int1 xvn) 
.................... {  
....................    usi8 ch,dv;     
....................    lcd_goto_xy(x,y); 
....................    ch = so/10%10;         
....................    dv = so%10; 
....................    //lcd_hien_thi_so_to(ch,x,y);                
....................    lcd_hien_thi_so_to(dv,x,y+3);   
....................    if((ch==0)&&(xvn)) lcd_xoa_so_to(x,y); 
....................    else      lcd_hien_thi_so_to(ch,x,y);      
.................... } 
.................... //xxxxxxxxxxxxxxxxxxxxxxxxxxxxxxxxxxxxxxxxxxxxxxxxxxxxxxxx   
.................... //ham 621: giai ma hien thi 3 so to tai toa do x,y 
.................... //xxxxxxxxxxxxxxxxxxxxxxxxxxxxxxxxxxxxxxxxxxxxxxxxxxxxxxxx  
.................... void lcd_gm_ht_3so_to_xvn(usi16 so,usi8 x,usi8 y,int1 xvn) 
.................... {  
....................    usi8 tr,ch,dv;           
....................    lcd_goto_xy(x,y);                    
....................    tr = so/100%10;  
....................    ch = so/10%10;         
....................    dv = so%10; 
....................    lcd_hien_thi_so_to(tr,x,y);                
....................    lcd_hien_thi_so_to(ch,x,y+3);   
....................    lcd_hien_thi_so_to(dv,x,y+6); 
....................    if((tr==0)&&(xvn)) 
....................    {      
....................       lcd_xoa_so_to(x,y); 
....................       if(ch==0) lcd_xoa_so_to(x,y+3); 
....................    } 
.................... } 
.................... //xxxxxxxxxxxxxxxxxxxxxxxxxxxxxxxxxxxxxxxxxxxxxxxxxxxxxxxx   
.................... //ham 622: giai ma hien thi 4 so to tai toa do x,y 
.................... //xxxxxxxxxxxxxxxxxxxxxxxxxxxxxxxxxxxxxxxxxxxxxxxxxxxxxxxx  
.................... void lcd_gm_ht_4so_to_xvn(usi16 so,usi8 x,usi8 y,int1 xvn) 
.................... {  
....................    usi8 ng,tr,ch,dv;           
....................    lcd_goto_xy(x,y);                    
....................    ng = so/1000%10;  
....................    tr = so/100%10;  
....................    ch = so/10%10;         
....................    dv = so%10; 
....................    lcd_hien_thi_so_to(ng,x,y);                
....................    lcd_hien_thi_so_to(tr,x,y+3);   
....................    lcd_hien_thi_so_to(ch,x,y+6); 
....................    lcd_hien_thi_so_to(dv,x,y+9);   
....................    if((ng==0)&&(xvn)) 
....................    {      
....................       lcd_xoa_so_to(x,y); 
....................       if(tr==0)  
....................      { 
....................       lcd_xoa_so_to(x,y+3); 
....................       if(ch==0) lcd_xoa_so_to(x,y+6); 
....................      } 
....................    } 
.................... } 
.................... //xxxxxxxxxxxxxxxxxxxxxxxxxxxxxxxxxxxxxxxxxxxxxxxxxxxxxxxx   
.................... //ham 623: giai ma hien thi 4 so to tai toa do x,y 
.................... //xxxxxxxxxxxxxxxxxxxxxxxxxxxxxxxxxxxxxxxxxxxxxxxxxxxxxxxx  
.................... void lcd_gm_ht_5so_to_xvn(usi16 so,usi8 x,usi8 y,int1 xvn) 
.................... {  
....................    usi8 cn,ng,tr,ch,dv;  
....................  
....................       lcd_goto_xy(x,y); 
....................       ng = so/1000%10;  
....................       ng = so/1000%10;  
....................       tr = so/100%10;  
....................       ch = so/10%10;         
....................       dv = so%10; 
....................       lcd_hien_thi_so_to(cn,x,y);                
....................       lcd_hien_thi_so_to(ng,x,y+3);   
....................       lcd_hien_thi_so_to(tr,x,y+6); 
....................       lcd_hien_thi_so_to(ch,x,y+9);  
....................       lcd_hien_thi_so_to(dv,x,y+12); 
....................       if((cn==0)&&(xvn)) 
....................       {      
....................          lcd_xoa_so_to(x,y); 
....................          if(ng==0)  
....................          { 
....................             lcd_xoa_so_to(x,y+3); 
....................             if(tr==0)  
....................             { 
....................                lcd_xoa_so_to(x,y+6); 
....................                if(ch==0) lcd_xoa_so_to(x,y+9); 
....................             } 
....................          } 
....................       } 
.................... } 
.................... //xxxxxxxxxxxxxxxxxxxxxxxxxxxxxxxxxxxxxxxxxxxxxxxxxxxxxxxx   
.................... //ham 624: giai ma hien thi 4 so to tai toa do x,y 
.................... //xxxxxxxxxxxxxxxxxxxxxxxxxxxxxxxxxxxxxxxxxxxxxxxxxxxxxxxx  
.................... void lcd_hien_thi_3so_tp_nho(usi16 tp,usi8 x, y) 
.................... {    
....................    lcd_goto_xy(x,y); 
....................    lcd_data(".");                                         
....................    lcd_data(tp/100%10+0x30); 
....................    lcd_data(tp/10%10+0x30);    
....................    lcd_data(tp%10+0x30);     
.................... }   
.................... //xxxxxxxxxxxxxxxxxxxxxxxxxxxxxxxxxxxxxxxxxxxxxxxxxxxxxxxx 
.................... //ham 624: giai ma hien thi 4 so to tai toa do x,y 
.................... //xxxxxxxxxxxxxxxxxxxxxxxxxxxxxxxxxxxxxxxxxxxxxxxxxxxxxxxx  
.................... void lcd_hien_thi_2so_tp_nho(usi8 tp,usi8 x, y) 
.................... {    
....................    lcd_goto_xy(x,y); 
....................    lcd_data(".");                                         
....................    lcd_data(tp/10%10+0x30); 
....................    lcd_data(tp%10+0x30);    
.................... }   
....................  
.................... //xxxxxxxxxxxxxxxxxxxxxxxxxxxxxxxxxxxxxxxxxxxxxxxxxxxxxxxx   
.................... //ham 625: giai ma hien thi 4 so to tai toa do x,y 
.................... //xxxxxxxxxxxxxxxxxxxxxxxxxxxxxxxxxxxxxxxxxxxxxxxxxxxxxxxx  
.................... void lcd_hien_thi_1so_tp_nho(usi8 tp,usi8 x, y) 
.................... {    
....................    lcd_goto_xy(x,y); 
....................    lcd_data(".");                                         
....................    lcd_data(tp/10%10+0x30); 
.................... }  
....................  
.................... #include <tv_dht11.c>                                             
.................... //xxxxxxxxxxxxxxxxxxxxxxxxxxxxxxxxxxxxxxxxxxxxxxxxxxxxxxxx 
.................... //NGUYEN DINH PHU SU PHAM KY THUAT TP HCM 
.................... //xxxxxxxxxxxxxxxxxxxxxxxxxxxxxxxxxxxxxxxxxxxxxxxxxxxxxxxx 
....................  
.................... #define dht11_pin_low()    output_drive(dht11); output_low(dht11) 
.................... #define dht11_pin_high()   output_drive(dht11); output_high(dht11) 
.................... #define dht11_pin_float()  output_float(dht11) 
.................... #define dht11_pin_read()   input_state(dht11)   
.................... //xxxxxxxxxxxxxxxxxxxxxxxxxxxxxxxxxxxxxxxxxxxxxxxxxxxxxxx 
.................... //ham bat dau giao tiep dht11 
.................... //xxxxxxxxxxxxxxxxxxxxxxxxxxxxxxxxxxxxxxxxxxxxxxxxxxxxxxx   
.................... void dht11_start()         
.................... {                                 
....................    dht11_pin_low(); 
....................    delay_ms(20);                                        
....................    dht11_pin_high(); 
....................    dht11_pin_float(); 
....................    delay_us(40);    
.................... }  
.................... //xxxxxxxxxxxxxxxxxxxxxxxxxxxxxxxxxxxxxxxxxxxxxxxxxxxxxxx 
.................... //ham kiem tra dap ung cua DHT11:do thuc te cac thong so 
.................... //xxxxxxxxxxxxxxxxxxxxxxxxxxxxxxxxxxxxxxxxxxxxxxxxxxxxxxx   
.................... int1 dht11_check_response()         
.................... {                                 
....................    unsigned int8 cnt=0;    
....................    int1 tt=1, tt1=1; 
....................    do 
....................    { 
....................       if(dht11_pin_read()==0) cnt++; //       
....................       else                    tt=0;  //het o muc 0,xung ln 1,        
....................    }while ((cnt<200)&&(tt==1));      //dung: cnt<200 v tt=1; sai  
....................                                                 
....................    cnt=0; tt1=1; 
....................    do 
....................    { 
....................       if(dht11_pin_read()==1) cnt++;        
....................       else                    tt1=0;  //het o muc 1, xung xuong muc 0        
....................    }while ((cnt<200)&&(tt1==1));               
....................    return tt;  
.................... }        
.................... //xxxxxxxxxxxxxxxxxxxxxxxxxxxxxxxxxxxxxxxxxxxxxxxxxxxxxxx 
.................... //ham doc 5 byte cua DHT11 
.................... //xxxxxxxxxxxxxxxxxxxxxxxxxxxxxxxxxxxxxxxxxxxxxxxxxxxxxxx   
.................... unsigned int8 dht11_read()         
.................... {                                                                                
....................    unsigned int8 kq,j;     
....................    for(j=0;j<8;j++)                                                
....................    {                                                          
....................       while(!dht11_pin_read());  //doi het muc 0     
....................       delay_us(30); 
....................       if(dht11_pin_read()==1)  
....................       {              
....................          kq = (kq<<1)+1;     
....................          delay_us(40);           //bit 1 thi them delay 
....................       }                           
....................       else kq = kq<<1;   
....................    }     
....................    return kq;  
.................... }   
.................... //xxxxxxxxxxxxxxxxxxxxxxxxxxxxxxxxxxxxxxxxxxxxxxxxxxxxxxx 
.................... //ham hien thi thong bao tren lcd khong co dht11 
.................... //xxxxxxxxxxxxxxxxxxxxxxxxxxxxxxxxxxxxxxxxxxxxxxxxxxxxxxx   
.................... void hien_thi_no_dht11()  
.................... {  
....................    lcd_goto_xy(0,0);                                                         
....................    lcd_data("NO DHT11");                                            
.................... }               
.................... //xxxxxxxxxxxxxxxxxxxxxxxxxxxxxxxxxxxxxxxxxxxxxxxxxxxxxxx 
.................... //ham hien thi thong bao check sum sai 
.................... //xxxxxxxxxxxxxxxxxxxxxxxxxxxxxxxxxxxxxxxxxxxxxxxxxxxxxxx   
.................... void hien_thi_sai_dht11()          
.................... {  
....................    lcd_goto_xy(0,0);                                                         
....................    lcd_data("DOC SAI DU LIEU DHT11");  
.................... } 
....................  
.................... #include <tv_08_relay_triac_buzzer_dc.c>   
.................... //xxxxxxxxxxxxxxxxxxxxxxxxxxxxxxxxxxxxxxxxxxxxxxxxxxxxxxxx 
.................... //NGUYEN DINH PHU SU PHAM KY THUAT TP HCM 
.................... //xxxxxxxxxxxxxxxxxxxxxxxxxxxxxxxxxxxxxxxxxxxxxxxxxxxxxxxx 
....................  
.................... //xxxxxxxxxxxxxxxxxxxxxxxxxxxxxxxxxxxxxxxxxxxxxxxxxxxxxxxx 
.................... //ham 801: dk relay,triac, buzzer, dong co, sim 
.................... //xxxxxxxxxxxxxxxxxxxxxxxxxxxxxxxxxxxxxxxxxxxxxxxxxxxxxxxx 
.................... void xuat_buzzer_relay() 
.................... {      
....................    unsigned int8 rbdc1,rbdc2; 
....................    rbdc1=rbdc; rbdc2=rbdc>>8;       
....................    xuat_1byte(rbdc2);      xuat_1byte(rbdc1);             
....................    output_high(rck_rlb);    
....................    output_low(rck_rlb); 
.................... }                                    
.................... //xxxxxxxxxxxxxxxxxxxxxxxxxxxxxxxxxxxxxxxxxxxxxxxxxxxxxxxx 
.................... //ham 802: dk buzzer on 
.................... //xxxxxxxxxxxxxxxxxxxxxxxxxxxxxxxxxxxxxxxxxxxxxxxxxxxxxxxx 
.................... void buzzer_on() 
.................... {     
....................    buzzer=1; 
....................    xuat_buzzer_relay();          
.................... } 
.................... //xxxxxxxxxxxxxxxxxxxxxxxxxxxxxxxxxxxxxxxxxxxxxxxxxxxxxxxx 
.................... //ham 803: dk buzzer off 
.................... //xxxxxxxxxxxxxxxxxxxxxxxxxxxxxxxxxxxxxxxxxxxxxxxxxxxxxxxx 
.................... void buzzer_off() 
.................... {      
....................    buzzer=0; 
....................    xuat_buzzer_relay(); 
.................... }   
.................... //xxxxxxxxxxxxxxxxxxxxxxxxxxxxxxxxxxxxxxxxxxxxxxxxxxxxxxxx 
.................... //ham 804: dk buzzer on roi off de tao bip 
.................... //xxxxxxxxxxxxxxxxxxxxxxxxxxxxxxxxxxxxxxxxxxxxxxxxxxxxxxxx 
.................... void buzzer_on_off(usi16 dl) 
.................... {      
....................    buzzer=1; 
....................    xuat_buzzer_relay(); 
....................    delay_ms(dl); 
....................    buzzer=0; 
....................    xuat_buzzer_relay(); 
.................... }   
.................... //xxxxxxxxxxxxxxxxxxxxxxxxxxxxxxxxxxxxxxxxxxxxxxxxxxxxxxxx 
.................... //ham 805: dk Relay 1 on 
.................... //xxxxxxxxxxxxxxxxxxxxxxxxxxxxxxxxxxxxxxxxxxxxxxxxxxxxxxxx 
.................... void relay_1_on() 
.................... {     
....................    relay_1=1; 
....................    xuat_buzzer_relay();          
.................... } 
.................... //xxxxxxxxxxxxxxxxxxxxxxxxxxxxxxxxxxxxxxxxxxxxxxxxxxxxxxxx 
.................... //ham 806: dk Relay 1 off 
.................... //xxxxxxxxxxxxxxxxxxxxxxxxxxxxxxxxxxxxxxxxxxxxxxxxxxxxxxxx 
.................... void relay_1_off() 
.................... {     
....................    relay_1=0; 
....................    xuat_buzzer_relay();          
.................... } 
.................... //xxxxxxxxxxxxxxxxxxxxxxxxxxxxxxxxxxxxxxxxxxxxxxxxxxxxxxxx 
.................... //ham 807: dk Relay 2 on 
.................... //xxxxxxxxxxxxxxxxxxxxxxxxxxxxxxxxxxxxxxxxxxxxxxxxxxxxxxxx 
.................... void relay_2_on() 
.................... {     
....................    relay_2=1; 
....................    xuat_buzzer_relay();          
.................... } 
.................... //xxxxxxxxxxxxxxxxxxxxxxxxxxxxxxxxxxxxxxxxxxxxxxxxxxxxxxxx 
.................... //ham 808: dk Relay 2 off 
.................... //xxxxxxxxxxxxxxxxxxxxxxxxxxxxxxxxxxxxxxxxxxxxxxxxxxxxxxxx 
.................... void relay_2_off() 
.................... {     
....................    relay_2=0; 
....................    xuat_buzzer_relay();          
.................... } 
.................... //xxxxxxxxxxxxxxxxxxxxxxxxxxxxxxxxxxxxxxxxxxxxxxxxxxxxxxxx 
.................... //ham 809: dk 2 Relay ON 
.................... //xxxxxxxxxxxxxxxxxxxxxxxxxxxxxxxxxxxxxxxxxxxxxxxxxxxxxxxx 
.................... void relay_1_relay_2_on() 
.................... {     
....................    relay_1=1;  relay_2=1; 
....................    xuat_buzzer_relay();          
.................... } 
.................... //xxxxxxxxxxxxxxxxxxxxxxxxxxxxxxxxxxxxxxxxxxxxxxxxxxxxxxxx 
.................... //ham 810: dk 2 Relay Off 
.................... //xxxxxxxxxxxxxxxxxxxxxxxxxxxxxxxxxxxxxxxxxxxxxxxxxxxxxxxx 
.................... void relay_1_relay_2_off() 
.................... {     
....................    relay_1=0;  relay_2=0; 
....................    xuat_buzzer_relay();          
.................... } 
.................... //xxxxxxxxxxxxxxxxxxxxxxxxxxxxxxxxxxxxxxxxxxxxxxxxxxxxxxxx 
.................... //ham 811: dk triac 1 on 
.................... //xxxxxxxxxxxxxxxxxxxxxxxxxxxxxxxxxxxxxxxxxxxxxxxxxxxxxxxx 
.................... void triac_1_on() 
.................... {     
....................    triac_1=1; 
....................    xuat_buzzer_relay();          
.................... } 
.................... //xxxxxxxxxxxxxxxxxxxxxxxxxxxxxxxxxxxxxxxxxxxxxxxxxxxxxxxx 
.................... //ham 812: dk triac 1 off 
.................... //xxxxxxxxxxxxxxxxxxxxxxxxxxxxxxxxxxxxxxxxxxxxxxxxxxxxxxxx 
.................... void triac_1_off() 
.................... {     
....................    triac_1=0; 
....................    xuat_buzzer_relay();          
.................... } 
.................... //xxxxxxxxxxxxxxxxxxxxxxxxxxxxxxxxxxxxxxxxxxxxxxxxxxxxxxxx 
.................... //ham 813: dk triac 2 on 
.................... //xxxxxxxxxxxxxxxxxxxxxxxxxxxxxxxxxxxxxxxxxxxxxxxxxxxxxxxx 
.................... void triac_2_on() 
.................... {     
....................    triac_2=1; 
....................    xuat_buzzer_relay();          
.................... } 
.................... //xxxxxxxxxxxxxxxxxxxxxxxxxxxxxxxxxxxxxxxxxxxxxxxxxxxxxxxx 
.................... //ham 814: dk triac 2 off 
.................... //xxxxxxxxxxxxxxxxxxxxxxxxxxxxxxxxxxxxxxxxxxxxxxxxxxxxxxxx 
.................... void triac_2_off()               
.................... {                                                        
....................    triac_2=0; 
....................    xuat_buzzer_relay();          
.................... }        
....................  
.................... #include <tv_07_adc_cb.c>                                           
.................... //xxxxxxxxxxxxxxxxxxxxxxxxxxxxxxxxxxxxxxxxxxxxxxxxxxxxxxxx 
.................... //NGUYEN DINH PHU SU PHAM KY THUAT TP HCM 
.................... //xxxxxxxxxxxxxxxxxxxxxxxxxxxxxxxxxxxxxxxxxxxxxxxxxxxxxxxx 
....................  
.................... //xxxxxxxxxxxxxxxxxxxxxxxxxxxxxxxxxxxxxxxxxxxxxxxxxxxxxxxx 
.................... //xxxxxxxxxxxxxxxxxxxxxxxxxxxxxxxxxxxxxxxxxxxxxxxxxxxxxxxx 
.................... //ham 701: chuyen doi theo kenh va so lan, tra ve T/F  
.................... //xxxxxxxxxxxxxxxxxxxxxxxxxxxxxxxxxxxxxxxxxxxxxxxxxxxxxxxx    
.................... //xxxxxxxxxxxxxxxxxxxxxxxxxxxxxxxxxxxxxxxxxxxxxxxxxxxxxxxx  
.................... //dinh nghia cac kenh ADC noi voi cac cam bien  
.................... #define chan_lm35a   0                         
.................... #define chan_lm35b   1 
.................... #define chan_cbkc    2 
.................... //xxxxxxxxxxxxxxxxxxxxxxxxxxxxxxxxxxxxxxxxxxxxxxxxxxxxxxxx   
.................... float adc_read(usi8 solan,chan_i)                       
.................... { 
....................    float kq_adc; 
....................    set_adc_channel(chan_i);                
....................    delay_us(20);                                           
....................    kq_adc = 0;              
....................    for(int8 i=0;i<solan;i++)   
....................    { 
....................       kq_adc = kq_adc + read_adc();                         
....................    } 
....................    kq_adc = kq_adc/solan;      
....................    return kq_adc;  
.................... } 
.................... //xxxxxxxxxxxxxxxxxxxxxxxxxxxxxxxxxxxxxxxxxxxxxxxxxxxxxxxx 
.................... //ham 702: tach so thuc thanh phan nguyen va thap phan 
.................... //xxxxxxxxxxxxxxxxxxxxxxxxxxxxxxxxxxxxxxxxxxxxxxxxxxxxxxxx   
.................... usi16 so_ng,so_tp; 
.................... void float_to_ng_2so_tp(float st)                       
.................... {    
....................    so_ng = st/1;       //nguyen                           
....................    st = st-so_ng;      //tphan 
....................    st = st*100;                                                          
....................    so_tp = st/1;    
.................... }  
.................... //xxxxxxxxxxxxxxxxxxxxxxxxxxxxxxxxxxxxxxxxxxxxxxxxxxxxxxxx    
.................... //xxxxxxxxxxxxxxxxxxxxxxxxxxxxxxxxxxxxxxxxxxxxxxxxxxxxxxxx 
.................... //ham 703: do nhiet lm35a, lm35b, dkhien den, bao dong 
.................... //xxxxxxxxxxxxxxxxxxxxxxxxxxxxxxxxxxxxxxxxxxxxxxxxxxxxxxxx    
.................... //xxxxxxxxxxxxxxxxxxxxxxxxxxxxxxxxxxxxxxxxxxxxxxxxxxxxxxxx    
.................... usi8 nd_tren = 34;                                                       
.................... usi8 nd_duoi = 32;   
.................... #define ttqn tttd  
....................  
.................... int1 tttd=0,buz_ena=0,ttmd=0;           
.................... void so_sanh_1nd(usi16 nd1)                         
.................... {                                    
....................    if((nd1>nd_tren)&&(tttd==0)) 
....................    {                      
....................          tttd = 1;   ttmd = 0;                                                            
....................          if(buz_ena) buzzer_on();                                    
....................          triac_2_off();  
....................    }                                                                                     
....................    else if((nd1<nd_tren)&&(tttd==1))            
....................    {                        
....................          tttd = 0;   
....................          if(buz_ena) buzzer_off();            
....................    }                                 
....................    else if((nd1<nd_duoi)&&(tttd==0))  
....................    { 
....................       if(ttmd==0)  
....................       { 
....................          triac_2_on(); ttmd=1; 
....................          buzzer_on_off(300); 
....................       } 
....................    }  
.................... }      
....................  
....................  
.................... void so_sanh_and_2nd(usi16 nd1, usi16 nd2)                         
.................... {                                    
....................    if((nd1>nd_tren)&&(nd2>nd_tren)&&(tttd==0)) 
....................    {                      
....................       tttd = 1;    ttmd = 0;                                                            
....................       if(buz_ena) buzzer_on();                                    
....................       triac_2_off();  
....................    }                                                                                     
....................    else if((nd1<nd_tren)&&(nd2<nd_tren)&&(tttd==1))            
....................    {                        
....................       tttd = 0;   
....................       if(buz_ena) buzzer_off();                       
....................    }                                 
....................    else if((nd1<nd_duoi)&&(nd2<nd_duoi)&&(tttd==0))   
....................    { 
....................       if(ttmd==0)  
....................       { 
....................          triac_2_on(); ttmd=1; 
....................          buzzer_on_off(300); 
....................       } 
....................    }  
.................... }      
....................  
.................... void so_sanh_or_2nd(usi16 nd1, usi16 nd2)                         
.................... {                                    
....................    if(((nd1>nd_tren)||(nd2>nd_tren))&&(tttd==0)) 
....................    {                      
....................          tttd = 1;  ttmd = 0;                                                             
....................          if(buz_ena) buzzer_on();                                    
....................          triac_2_off();  
....................    }                                                                                     
....................    else if(((nd1<nd_tren)&&(nd2<nd_tren))&&(tttd==1))            
....................    {                        
....................          tttd = 0;                       
....................          if(buz_ena) buzzer_off();            
....................    }                                
....................    else if(((nd1<nd_duoi)||(nd2<nd_duoi))&&(tttd==0))     
....................    { 
....................       if(ttmd==0)  
....................       { 
....................          triac_2_on(); ttmd=1; 
....................          buzzer_on_off(300); 
....................       } 
....................    }  
....................    
.................... }                                    
....................                                     
.................... void so_sanh_nd_dk_buzzer(usi16 nd1, usi16 nd2, int8 sel)                         
.................... {                                                  
....................    if(sel==1)      so_sanh_1nd(nd1); 
....................    else if(sel==2) so_sanh_and_2nd(nd1,nd2); 
....................    else if(sel==3) so_sanh_or_2nd(nd1,nd2);    
.................... } 
....................  
.................... //xxxxxxxxxxxxxxxxxxxxxxxxxxxxxxxxxxxxxxxxxxxxxxxxxxxxxxxx     
.................... //xxxxxxxxxxxxxxxxxxxxxxxxxxxxxxxxxxxxxxxxxxxxxxxxxxxxxxxx 
.................... //bai 711: doc gia tri cua joystick hien thi lcd           
.................... //xxxxxxxxxxxxxxxxxxxxxxxxxxxxxxxxxxxxxxxxxxxxxxxxxxxxxxxx 
.................... //xxxxxxxxxxxxxxxxxxxxxxxxxxxxxxxxxxxxxxxxxxxxxxxxxxxxxxxx    
.................... //!void h711_lcd_hien_thi_joystick(usi8 x,y)                                  
.................... //!{                                              
.................... //!   lcd_goto_xy(0,0);                                                         
.................... //!   lcd_data("JOYSTICK"); 
.................... //!   lcd_goto_xy(1,4);                                                         
.................... //!   lcd_data("VRX:"); 
.................... //!   lcd_goto_xy(3,4);                                                         
.................... //!   lcd_data("VRY:"); 
.................... //!}  
.................... //! 
.................... //xxxxxxxxxxxxxxxxxxxxxxxxxxxxxxxxxxxxxxxxxxxxxxxxxxxxxxxx 
.................... //vrx noi kenh thu 1 AN1, vry noi voi an2 
.................... //cho phep hien thi 2 so thap phan tuy thuoc vao http 
.................... //dung bien nguyen tam de khi bang thi khong can hthi lai 
.................... //xxxxxxxxxxxxxxxxxxxxxxxxxxxxxxxxxxxxxxxxxxxxxxxxxxxxxxxx 
.................... //!usi16 vrx_ng,vrx_ngt; 
.................... //!void h711_adc_js_vrx_doc_xuly(usi8 solan)                                      
.................... //!{                                               
.................... //!   float vrx; 
.................... //!   vrx=h701_adc_read(solan,chan_js_vrx); 
.................... //!   h701_foat_to_ng_2so_tp(vrx);       
.................... //!   vrx_ng = so_ng; 
.................... //!} 
.................... //!//xxxxxxxxxxxxxxxxxxxxxxxxxxxxxxxxxxxxxxxxxxxxxxxxxxxxxxxx 
.................... //!void h711_adc_js_vrx_ht_lcd_7doan(usi8 x,y,z,int1 ht_l7d,ht_lcd)                                      
.................... //!{                                                  
.................... //!   if(vrx_ngt!=vrx_ng) 
.................... //!   { 
.................... //!      vrx_ngt=vrx_ng; 
.................... //!      if(ht_l7d)   
.................... //!      { 
.................... //!         giaima_bin_4so_vitri_vn(vrx_ng,z,cx_vn);  //4 
.................... //!         xuat_8led_7doan();  
.................... //!      } 
.................... //!      if(ht_lcd) lcd_gm_ht_4so_to_xvn(vrx_ng,x,y,kx_vn);//0,8 
.................... //!   }           
.................... //!}   
.................... //!//xxxxxxxxxxxxxxxxxxxxxxxxxxxxxxxxxxxxxxxxxxxxxxxxxxxxxxxx 
.................... //!void h711_adc_js_vrx_all(usi8 solan, x,y,z,int1 ht_l7d,ht_lcd)                                      
.................... //!{                                                  
.................... //!     h711_adc_js_vrx_doc_xuly(solan); 
.................... //!     h711_adc_js_vrx_ht_lcd_7doan(x,y,z,ht_l7d,ht_lcd); 
.................... //!}   
.................... //! 
.................... //!//xxxxxxxxxxxxxxxxxxxxxxxxxxxxxxxxxxxxxxxxxxxxxxxxxxxxxxxx 
.................... //!usi16 vry_ng,vry_ngt; 
.................... //!void h712_adc_js_vry_doc_xuly(usi8 solan)                                      
.................... //!{                                            
.................... //!   float vry;   
.................... //!   vry=h701_adc_read(solan,chan_js_vry); 
.................... //!   h701_foat_to_ng_2so_tp(vry);       
.................... //!   vry_ng = so_ng; 
.................... //!} 
.................... //! 
.................... //!void h712_adc_js_vry_ht_lcd_7doan(usi8 x,y,z,int1 ht_l7d,ht_lcd)                                      
.................... //!{                                              
.................... //!   if(vry_ngt!=vry_ng) 
.................... //!   { 
.................... //!      vry_ngt=vry_ng; 
.................... //!      if(ht_l7d)   
.................... //!      {   
.................... //!         giaima_bin_4so_vitri_vn(vry_ng,z,cx_vn);//0 
.................... //!         xuat_8led_7doan(); 
.................... //!      }                   
.................... //!      if(ht_lcd) lcd_gm_ht_4so_to_xvn(vry_ng,x,y,kx_vn);//2,8 
.................... //!   }                              
.................... //!}   
.................... //!  
.................... //!void h712_adc_js_vry_all(usi8 solan,x,y,z,int1 ht_l7d,ht_lcd )                                      
.................... //!{  
.................... //!   h712_adc_js_vry_doc_xuly(solan); 
.................... //!   h712_adc_js_vry_ht_lcd_7doan(x,y,z,ht_l7d,ht_lcd); 
.................... //!}      
....................  
.................... //xxxxxxxxxxxxxxxxxxxxxxxxxxxxxxxxxxxxxxxxxxxxxxxxxxxxxxxx 
.................... //ham kiem tra phim on                           
.................... //neu co nhan thi dao bit tt_on_off va tra ve co nhan 
.................... //neu khong nhan tra ve tt khong nhan 
.................... //xxxxxxxxxxxxxxxxxxxxxxxxxxxxxxxxxxxxxxxxxxxxxxxxxxxxxxxx      
.................... //!int1 phim_on_off_btn_joy()    
.................... //!{                      
.................... //!   if(phim_bt_joy_c1(c_ktnp,0)==co_nhan)    
.................... //!   { 
.................... //!      tt_on_off = ~tt_on_off; 
.................... //!      return co_nhan;    
.................... //!   }                                     
.................... //!   else   return khong_nhan;                    
.................... //!}   
.................... //!//xxxxxxxxxxxxxxxxxxxxxxxxxxxxxxxxxxxxxxxxxxxxxxxxxxxxxxxx 
.................... //!void h713_32led_on_off_btj()        
.................... //!{                               
.................... //!   tt_1btn = phim_on_off_btn_joy(); 
.................... //!   if(tt_1btn==co_nhan)               
.................... //!      h323_dk_32led_theo_tt_on_off(); 
.................... //!}             
....................  
....................  
.................... //!void b711_adc_joystick(usi8 solan,x,y,z,int1 ht_l7d,ht_lcd)                                      
.................... //!{                                            
.................... //!   h711_adc_js_vrx_all(solan,x,y,z,ht_l7d,ht_lcd);                                                                 
.................... //!   h711_adc_js_vry_all(solan);                       
.................... //!   h711_32led_on_off_btj();              
.................... //!}   
....................  
.................... //xxxxxxxxxxxxxxxxxxxxxxxxxxxxxxxxxxxxxxxxxxxxxxxxxxxxxxxx     
.................... //xxxxxxxxxxxxxxxxxxxxxxxxxxxxxxxxxxxxxxxxxxxxxxxxxxxxxxxx 
.................... //bai 711: doc gia tri cua joystick hien thi lcd           
.................... //xxxxxxxxxxxxxxxxxxxxxxxxxxxxxxxxxxxxxxxxxxxxxxxxxxxxxxxx 
.................... //xxxxxxxxxxxxxxxxxxxxxxxxxxxxxxxxxxxxxxxxxxxxxxxxxxxxxxxx    
....................  
.................... //xxxxxxxxxxxxxxxxxxxxxxxxxxxxxxxxxxxxxxxxxxxxxxxxxxxxxxxx 
.................... //ham kiem tra phim on                           
.................... //neu co nhan thi dao bit tt_on_off va tra ve co nhan 
.................... //neu khong nhan tra ve tt khong nhan 
.................... //xxxxxxxxxxxxxxxxxxxxxxxxxxxxxxxxxxxxxxxxxxxxxxxxxxxxxxxx                                                    
....................                                                                     
.................... //xxxxxxxxxxxxxxxxxxxxxxxxxxxxxxxxxxxxxxxxxxxxxxxxxxxxxxxx     
.................... //xxxxxxxxxxxxxxxxxxxxxxxxxxxxxxxxxxxxxxxxxxxxxxxxxxxxxxxx 
.................... //ham 712: do nhiet lm35a, dkhien den, bao dong           
.................... //xxxxxxxxxxxxxxxxxxxxxxxxxxxxxxxxxxxxxxxxxxxxxxxxxxxxxxxx 
.................... //xxxxxxxxxxxxxxxxxxxxxxxxxxxxxxxxxxxxxxxxxxxxxxxxxxxxxxxx 
.................... //!void b712_adc_lm35a_lm35b_joystick()                                      
.................... //!{ 
.................... //!          
.................... //!}  
.................... //!  
.................... //xxxxxxxxxxxxxxxxxxxxxxxxxxxxxxxxxxxxxxxxxxxxxxxxxxxxxxxx       
.................... //ham 712: do nhiet lm35a, lm35b, dkhien den, bao dong 
.................... //xxxxxxxxxxxxxxxxxxxxxxxxxxxxxxxxxxxxxxxxxxxxxxxxxxxxxxxx    
....................      
.................... //xxxxxxxxxxxxxxxxxxxxxxxxxxxxxxxxxxxxxxxxxxxxxxxxxxxxxxxx   
.................... //xxxxxxxxxxxxxxxxxxxxxxxxxxxxxxxxxxxxxxxxxxxxxxxxxxxxxxxx 
.................... //ham 721: do nhiet lm35a, lm35b, dkhien den, bao dong 
.................... //xxxxxxxxxxxxxxxxxxxxxxxxxxxxxxxxxxxxxxxxxxxxxxxxxxxxxxxx   
.................... //xxxxxxxxxxxxxxxxxxxxxxxxxxxxxxxxxxxxxxxxxxxxxxxxxxxxxxxx  
.................... //!void h721_lcd_ht_text_cbkc_gp2d12()                             
.................... //!{                                              
.................... //!   lcd_goto_xy(0,0);                                                         
.................... //!   lcd_data("Cam bien khoang cach");  
.................... //!   lcd_goto_xy(1,0);                                                         
.................... //!   lcd_data("SHARP GP2D12:10-80cm");     
.................... //!}   
.................... //!//xxxxxxxxxxxxxxxxxxxxxxxxxxxxxxxxxxxxxxxxxxxxxxxxxxxxxxxx  
.................... //!usi16 kc_ng,kc_tp,kc_ngt=0; 
.................... //!void h721_adc_cbkc_gp2d12_doc_xuly(usi8 sl)                                      
.................... //!{                 
.................... //!   float kc;   
.................... //!   kc=h701_adc_read(sl,chan_cbkc); 
.................... //!   kc = pow(4277/kc,1.106);                                     
.................... //!   if(kc>80) kc=80;   
.................... //!   h701_foat_to_ng_2so_tp(kc);       
.................... //!   kc_ng = so_ng;                               
.................... //!   kc_tp = so_tp;  
.................... //!}     
.................... //!//xxxxxxxxxxxxxxxxxxxxxxxxxxxxxxxxxxxxxxxxxxxxxxxxxxxxxxxx 
.................... //!void h721_adc_cbkc_gp2d12_ht_lcd_7doan(usi8 x,y,z,int1 ht_l7d,ht_lcd,ht_tp)                                      
.................... //!{                 
.................... //!   if(kc_ngt!=kc_ng) 
.................... //!   { 
.................... //!      kc_ngt=kc_ng;       
.................... //!      if(ht_l7d)  
.................... //!      { 
.................... //!         giaima_bin_2so_vitri_vn(kc_ng,z,cx_vn);//3 
.................... //!         xuat_8led_7doan(); 
.................... //!      } 
.................... //!      if(ht_lcd) lcd_gm_ht_2so_to_xvn(kc_ng,x,y,kx_vn);//2,0 
.................... //!   } 
.................... //!   if(ht_tp) lcd_hien_thi_2so_tp_nho(kc_tp,x+1,y+6);   
.................... //!} 
.................... //!//xxxxxxxxxxxxxxxxxxxxxxxxxxxxxxxxxxxxxxxxxxxxxxxxxxxxxxxx 
.................... //!void b721_adc_cbkc_gp2d12_all(usi8 solan,x,y,z,int1 ht_l7d,ht_lcd,ht_tp)                                      
.................... //!{ 
.................... //!   h721_adc_cbkc_gp2d12_doc_xuly(solan); 
.................... //!   h721_adc_cbkc_gp2d12_ht_lcd_7doan(x,y,z,ht_l7d,ht_lcd,ht_tp); 
.................... //!}     
.................... //xxxxxxxxxxxxxxxxxxxxxxxxxxxxxxxxxxxxxxxxxxxxxxxxxxxxxxxx   
.................... //xxxxxxxxxxxxxxxxxxxxxxxxxxxxxxxxxxxxxxxxxxxxxxxxxxxxxxxx 
.................... //ham 721: do nhiet lm35a, lm35b, dkhien den, bao dong 
.................... //xxxxxxxxxxxxxxxxxxxxxxxxxxxxxxxxxxxxxxxxxxxxxxxxxxxxxxxx   
.................... //xxxxxxxxxxxxxxxxxxxxxxxxxxxxxxxxxxxxxxxxxxxxxxxxxxxxxxxx   
....................   
.................... //!void b722_adc_lm35a_lm35a_joystick_cbkc()                                      
.................... //!{                                                         
.................... //!      giaima_bin_2so_vitri_vn(lm35b/1,2,kx_vn);                                               
.................... //!      giaima_bin_2so_vitri_vn(lm35a/1,0,kx_vn);                 
.................... //!      xuat_8led_7doan();                                                  
.................... //!      h701_lcd_hien_thi_so_tp(lm35a,1,0,sole_1);   
.................... //!      h701_lcd_hien_thi_so_tp(lm35b,1,7,sole_1);     
.................... //!      h701_lcd_hien_thi_so_tp(vrx,3,0,sole_1);          
.................... //!      h701_lcd_hien_thi_so_tp(vry,3,7,sole_1);           
.................... //!      h701_lcd_hien_thi_so_tp(cb_kc,1,14,sole_1);                           
.................... //!}      
.................... //xxxxxxxxxxxxxxxxxxxxxxxxxxxxxxxxxxxxxxxxxxxxxxxxxxxxxxxx 
.................... //ham 721: do nhiet lm35a, lm35b, dkhien den, bao dong 
.................... //xxxxxxxxxxxxxxxxxxxxxxxxxxxxxxxxxxxxxxxxxxxxxxxxxxxxxxxx   
.................... //!//xxxxxxxxxxxxxxxxxxxxxxxxxxxxxxxxxxxxxxxxxxxxxxxxxxxxxxxx 
.................... //!void h731_lcd_hien_thi_hcsr04(usi8 x,y)                             
.................... //!{                                              
.................... //!   lcd_goto_xy(x,y);                                                         
.................... //!   lcd_data("HCSR04");                                            
.................... //!}               
.................... //!void h731_hcsr04_do_khoangcach()                               
.................... //!{                                                              
.................... //!   output_high(trig);       
.................... //!   delay_us(20);    
.................... //!   output_low(trig);           
.................... //!                                            
.................... //!   set_timer3(0);                                           
.................... //!   while(!(input(echo)));          
.................... //!   setup_timer_3(t3_internal|t3_div_by_8);   
.................... //!                                 
.................... //!   while(input(echo));                                    
.................... //!   setup_timer_3(t3_disabled); 
.................... //!                                                  
.................... //!} 
.................... //! 
.................... //!usi16 gt_t3,kcsa_ng,kcsa_tp,kcsa_ngt=0; 
.................... //!void h731_cbkc_hc04_do_xuly()                                      
.................... //!{                   
.................... //!   float kcsa;   
.................... //!   h731_hcsr04_do_khoangcach(); 
.................... //!   gt_t3 = get_timer3(); 
.................... //!  
.................... //!   kcsa = gt_t3*1.6;                                               
.................... //!   kcsa = (kcsa/58); 
.................... //!    
.................... //!   h701_foat_to_ng_2so_tp(kcsa);       
.................... //!   kcsa_ng = so_ng; 
.................... //!   kcsa_tp = so_tp;  
.................... //!} 
.................... //! 
.................... //!void h731_cbkc_hc04_ht_lcd_7doan(usi8 x,y,z,int1 ht_l7d,ht_lcd)                                      
.................... //!{                     
.................... //!   if(kcsa_ngt!=kcsa_ng) 
.................... //!   { 
.................... //!      kcsa_ngt=kcsa_ng; 
.................... //!      if(ht_l7d)         
.................... //!      {   
.................... //!         giaima_bin_4so_vitri_vn(kcsa_ng,z,cx_vn); //0 
.................... //!         xuat_8led_7doan(); 
.................... //!      } 
.................... //!      if(ht_lcd)lcd_gm_ht_4so_to_xvn(kcsa_ng,x,y,kx_vn);//2,8 
.................... //!   }   
.................... //!} 
.................... //! 
.................... //!void h731_cbkc_hc04_all(usi8 x,y,z,int1 ht_l7d,ht_lcd)                                      
.................... //!{     
.................... //!   h731_cbkc_hc04_do_xuly(); 
.................... //!   h731_cbkc_hc04_ht_lcd_7doan(x,y,z,ht_l7d,ht_lcd); 
.................... //!} 
.................... //!//xxxxxxxxxxxxxxxxxxxxxxxxxxxxxxxxxxxxxxxxxxxxxxxxxxxxxxxx 
.................... //! 
.................... //!//xxxxxxxxxxxxxxxxxxxxxxxxxxxxxxxxxxxxxxxxxxxxxxxxxxxxxxxx 
.................... //!void b761_ket_hop_5_module()                             
.................... //!{                                                                   
.................... //!     //b622_glcd_dem_giay_kim_c1();      
.................... //!     //b536_lcd_dem_xung_timer0_so_to(); 
.................... //!     b424_gpg_3bt(20,10);                  
.................... //!     b351_32led_4yc_tu_dong_if();             
....................      //h761_adc_lm35a_lm35b_joystick_cbkc_hc04();   
.................... //!}                                                  
.................... //!//xxxxxxxxxxxxxxxxxxxxxxxxxxxxxxxxxxxxxxxxxxxxxxxxxxxxxxxx 
.................... //!//bai 643: ham chinh ket hop 32 led, 8 led 7doan, lcd, glcd         
.................... //!//xxxxxxxxxxxxxxxxxxxxxxxxxxxxxxxxxxxxxxxxxxxxxxxxxxxxxxxx   
.................... //!void b742_lcd_dem_xung_timer0_so_to()                                                   
.................... //!{                                                                       
.................... //!   t0 = get_timer0();                                       
.................... //!   if(t0!=t0_tam)               
.................... //!   {                                                          
.................... //!      giaima_bin_3so_vitri_vn(t0,0,cx_vn);            
.................... //!      h536_giai_ma_ht_so_to(t0);  
.................... //!      //h603_glcd_giai_ma_hien_thi(glcd_addr_line1,t0);  
.................... //!      t0_tam = t0;                    
.................... //!   }                                                                                
.................... //!   if (t0>=120)   set_timer0(0);                                                  
.................... //!}  
.................... //!  
.................... //!void b742_ket_hop_5_module()                             
.................... //!{                                                                   
.................... //!     //b622_glcd_dem_giay_kim_c1(); 
.................... //!      
.................... //!     b742_lcd_dem_xung_timer0_so_to(); 
.................... //!     b424_gpg_3bt(20,10);                  
.................... //!     b351_32led_4yc_tu_dong_if();                                               
.................... //!} 
.................... //!  
.................... //!           
....................  
.................... #include <tv_07_ds18b20.c>  
.................... //xxxxxxxxxxxxxxxxxxxxxxxxxxxxxxxxxxxxxxxxxxxxxxxxxxxxxxxx 
.................... //NGUYEN DINH PHU SU PHAM KY THUAT TP HCM 
.................... //xxxxxxxxxxxxxxxxxxxxxxxxxxxxxxxxxxxxxxxxxxxxxxxxxxxxxxxx 
....................  
.................... //xxxxxxxxxxxxxxxxxxxxxxxxxxxxxxxxxxxxxxxxxxxxxxxxxxxxxxxx 
.................... //dinh nghia chan giao tiep, thu vien, cac lenh ds13b20       
.................... //xxxxxxxxxxxxxxxxxxxxxxxxxxxxxxxxxxxxxxxxxxxxxxxxxxxxxxxx  
.................... #define  touch_pin pin_a5   
.................... #include <touch.c>                               
.................... /////////////////////////////////////////////////////////////////////////// 
.................... ////                        Dallas Touch Driver                        //// 
.................... ////                                                                   //// 
.................... ////                                                                   //// 
.................... ////  data = touch_read_bit()     Reads one bit from a touch device    //// 
.................... ////                                                                   //// 
.................... ////  data = touch_read_BYTE()    Reads one byte from a touch device.  //// 
.................... ////                                                                   //// 
.................... ////  ok = touch_write_bit(data)  Writes one bit to a touch device     //// 
.................... ////                              and returns true if all went ok.     //// 
.................... ////                              A false indicates a collision with   //// 
.................... ////                              another device.                      //// 
.................... ////                                                                   //// 
.................... ////  ok = touch_write_byte(data) Writes one byte to a touch device    //// 
.................... ////                              and returns true if all went ok.     //// 
.................... ////                              A false indicates a collision with   //// 
.................... ////                              another device.                      //// 
.................... ////                                                                   //// 
.................... ////  present = touch_present()   Issues a reset and returns true      //// 
.................... ////                              if the touch device is there.        //// 
.................... ////                                                                   //// 
.................... ////  reset_pulse()               Issues a reset and waits for a       //// 
.................... ////                              present pulse.                       //// 
.................... ////                                                                   //// 
.................... /////////////////////////////////////////////////////////////////////////// 
.................... ////        (C) Copyright 1996,2010 Custom Computer Services           //// 
.................... //// This source code may only be used by licensed users of the CCS C  //// 
.................... //// compiler.  This source code may only be distributed to other      //// 
.................... //// licensed users of the CCS C compiler.  No other use, reproduction //// 
.................... //// or distribution is permitted without written permission.          //// 
.................... //// Derivative programs created using this software in object code    //// 
.................... //// form are not restricted in any way.                               //// 
.................... /////////////////////////////////////////////////////////////////////////// 
....................  
.................... #ifndef  TOUCH_C 
.................... #define  TOUCH_C 
....................  
.................... #ifndef TOUCH_PIN 
....................    #define TOUCH_PIN  PIN_B0 
.................... #endif 
....................  
.................... #define TOUCH_PIN_LOW()    output_drive(TOUCH_PIN); output_low(TOUCH_PIN) 
.................... #define TOUCH_PIN_HIGH()    output_drive(TOUCH_PIN); output_high(TOUCH_PIN) 
.................... #define TOUCH_PIN_FLOAT()  output_float(TOUCH_PIN) 
.................... #define TOUCH_PIN_READ()      input_state(TOUCH_PIN) 
....................  
.................... ///////////////////////////// 
.................... ////                     //// 
.................... //// Function Prototypes //// 
.................... ////                     //// 
.................... ///////////////////////////// 
....................  
.................... /* 
.................... int1 touch_read_bit() 
.................... This will read back a bit from the DS1993 
.................... PARAMS: none 
.................... RETURNS: A bit from the DS1993 
.................... */ 
.................... int1 touch_read_bit(); 
....................  
.................... /* 
.................... BYTE touch_read_byte() 
.................... This will read back a byte from the DS1993 
.................... PARAMS: none 
.................... RETURNS: A byte from the DS1993 
.................... */ 
.................... BYTE touch_read_byte(); 
....................  
.................... /* 
.................... BOOLEAN touch_write_bit(int1 data) 
.................... This will write a bit to the DS1993 
.................... PARAMS: The bit to write 
.................... RETURNS: True if completed successfully, false if otherwise 
.................... */ 
.................... BOOLEAN touch_write_bit(int1 data); 
....................  
.................... /* 
.................... BOOLEAN touch_write_byte(BYTE data) 
.................... This will write a byte to the DS1993 
.................... PARAMS: The byte to write 
.................... RETURNS: True if completed successfully, false if otherwise 
.................... */ 
.................... BOOLEAN touch_write_byte(BYTE data); 
....................  
.................... /* 
.................... BOOLEAN touch_present() 
.................... This will evaluate whether or not there is a touch present on the DS1993 
.................... PARAMS: none 
.................... RETURNS: True if a touch is present, false if otherwise 
.................... */ 
.................... BOOLEAN touch_present(); 
....................  
.................... /* 
.................... void reset_pulse() 
.................... This will send the DS1993 a reset pulse 
.................... PARAMS: none 
.................... RETURNS: none 
.................... */ 
.................... void reset_pulse(); 
....................  
.................... ////////////////////////////////// 
.................... ////                          //// 
.................... //// Function Implementations //// 
.................... ////                          //// 
.................... ////////////////////////////////// 
....................  
.................... /* 
.................... int1 touch_read_bit() 
.................... This will read back a bit from the DS1993 
.................... PARAMS: none 
.................... RETURNS: A bit from the DS1993 
.................... */ 
.................... int1 touch_read_bit() 
.................... { 
....................    int1 data; 
....................  
....................    TOUCH_PIN_LOW(); 
....................    delay_us(14); 
....................    TOUCH_PIN_FLOAT(); 
....................    delay_us(5); 
....................    data = TOUCH_PIN_READ(); 
....................    delay_us(100); 
....................  
....................    return data; 
.................... } 
....................  
.................... /* 
.................... BYTE touch_read_byte() 
.................... This will read back a byte from the DS1993 
.................... PARAMS: none 
.................... RETURNS: A byte from the DS1993 
.................... */ 
.................... BYTE touch_read_byte() 
.................... { 
....................    BYTE i,data; 
....................  
....................    for(i=1; i <= 8; ++i) 
....................       shift_right(&data, 1, touch_read_bit()); 
....................  
....................    return data; 
.................... } 
....................  
.................... /* 
.................... BOOLEAN touch_write_bit(int1 data) 
.................... This will write a bit to the DS1993 
.................... PARAMS: The bit to write 
.................... RETURNS: True if completed successfully, false if otherwise 
.................... */ 
.................... BOOLEAN touch_write_bit(int1 data) 
.................... { 
....................    TOUCH_PIN_LOW(); 
....................    delay_us(10); 
....................    if(data) 
....................    { 
....................       TOUCH_PIN_HIGH(); 
....................       delay_us(10); 
....................       if(!TOUCH_PIN_READ()) 
....................          return FALSE; 
....................    } 
....................    else 
....................    { 
....................       TOUCH_PIN_LOW(); 
....................       delay_us(10); 
....................       if(TOUCH_PIN_READ()) 
....................          return FALSE; 
....................    } 
....................    delay_us(50); 
....................    TOUCH_PIN_HIGH(); 
....................    delay_us(50); 
....................    return TRUE; 
.................... } 
....................  
.................... /* 
.................... BOOLEAN touch_write_byte(BYTE data) 
.................... This will write a byte to the DS1993 
.................... PARAMS: The byte to write 
.................... RETURNS: True if completed successfully, false if otherwise 
.................... */ 
.................... BOOLEAN touch_write_byte(BYTE data) 
.................... { 
....................    BYTE i; 
....................  
....................    for(i=1; i<=8; ++i) 
....................       if(!touch_write_bit(shift_right(&data, 1, 0))) 
....................          return FALSE; 
....................  
....................    return TRUE; 
.................... } 
....................  
.................... /* 
.................... BOOLEAN touch_present() 
.................... This will evaluate whether or not there is a touch present on the DS1993 
.................... PARAMS: none 
.................... RETURNS: True if a touch is present, false if otherwise 
.................... */ 
.................... BOOLEAN touch_present() 
.................... { 
....................    BOOLEAN present; 
....................    TOUCH_PIN_LOW(); 
....................    delay_us(500); 
....................    TOUCH_PIN_FLOAT(); 
....................    delay_us(5); 
....................  
....................    if(!TOUCH_PIN_READ()) 
....................       return FALSE; 
....................  
....................    delay_us(65); 
....................    present = !TOUCH_PIN_READ(); 
....................    delay_us(240); 
....................    return present; 
.................... } 
....................  
.................... /* 
.................... void reset_pulse() 
.................... This will send the DS1993 a reset pulse 
.................... PARAMS: none 
.................... RETURNS: none 
.................... */ 
.................... void reset_pulse() 
.................... { 
....................    TOUCH_PIN_LOW(); 
....................    delay_us(500); 
....................    TOUCH_PIN_FLOAT(); 
....................    delay_us(5); 
....................    while(!touch_present()); 
.................... } 
....................  
....................  
.................... #endif 
....................  
.................... #define  search_rom       0xf0 
.................... #define  read_rom         0x33 
.................... #define  match_rom        0x55     
.................... #define  skip_rom         0xcc 
.................... #define  alarm_search     0xec 
.................... #define  read_scratchpad  0xbe  
.................... #define  write_scratchpad 0x4e                                
.................... #define  copy_scratchpad  0x48   
.................... #define  convert_t        0x44  
.................... //xxxxxxxxxxxxxxxxxxxxxxxxxxxxxxxxxxxxxxxxxxxxxxxxxxxxxxxx 
.................... //Thong bao khong co ds13b20       
.................... //xxxxxxxxxxxxxxxxxxxxxxxxxxxxxxxxxxxxxxxxxxxxxxxxxxxxxxxx  
.................... void ds18b20_no_ds18b(usi8 x,y)  
.................... {    
....................    lcd_goto_xy(x,y);        
....................    lcd_data("NO DS18B20");  
.................... }  
.................... //xxxxxxxxxxxxxxxxxxxxxxxxxxxxxxxxxxxxxxxxxxxxxxxxxxxxxxxx 
.................... //ham khoi tao ds13b20       
.................... //xxxxxxxxxxxxxxxxxxxxxxxxxxxxxxxxxxxxxxxxxxxxxxxxxxxxxxxx  
.................... void ds18b20_khoi_tao() 
.................... {                          
....................    touch_present(); 
....................    touch_write_byte(skip_rom);       
....................    touch_write_byte(write_scratchpad);                      
....................    touch_write_byte(0x0);        
....................    touch_write_byte(0x0);     
....................    touch_write_byte(0x7f); //12 bit 
....................  
....................    touch_present();    
....................    touch_write_byte(skip_rom); 
....................    touch_write_byte(convert_t);      
.................... } 
.................... //xxxxxxxxxxxxxxxxxxxxxxxxxxxxxxxxxxxxxxxxxxxxxxxxxxxxxxxx 
.................... //doc nhiet do tu ds13b20, tra ve nhiet do la 16 bit     
.................... //xxxxxxxxxxxxxxxxxxxxxxxxxxxxxxxxxxxxxxxxxxxxxxxxxxxxxxxx                                                  
.................... unsigned int16 ds18b20_read_temp()                                         
.................... {                                     
....................    unsigned int8  bl,bh;                                                              
....................    unsigned int16 w;  
....................    touch_write_byte(skip_rom); 
....................    touch_write_byte(read_scratchpad);                  
....................    bl = touch_read_byte(); 
....................    bh = touch_read_byte();                              
....................    w  = make16(bh,bl);                                                           
....................                                                          
....................    touch_present();    
....................    touch_write_byte(skip_rom); 
....................    touch_write_byte(convert_t);  
....................    return w; 
.................... }   
.................... //xxxxxxxxxxxxxxxxxxxxxxxxxxxxxxxxxxxxxxxxxxxxxxxxxxxxxxxx 
.................... //ham doc ma ROM cua DS18b20 va hien thi tai hang x, cot y  
.................... //xxxxxxxxxxxxxxxxxxxxxxxxxxxxxxxxxxxxxxxxxxxxxxxxxxxxxxxx     
.................... void ds18b20_doc_rom(usi8 x,y)   
.................... {     
....................    unsigned int8 rom_code[8];        
....................    unsigned int8 xh,xl; 
....................    signed int8 i; 
....................    if(touch_present()) 
....................    { 
....................       touch_write_byte(read_rom);                                                                             
....................       for(i=0;i<8;i++)                  
....................       rom_code[i] = touch_read_byte();                                  
....................       lcd_goto_xy(x,y);      
....................       for(i=7;i>-1;i--)  
....................       { 
....................          xh=rom_code[i]/16;               
....................          if(xh>9) xh=xh+0x37; 
....................          else     xh=xh+0x30;           
....................          xl=rom_code[i]%16;               
....................          if(xl>9) xl=xl+0x37; 
....................          else     xl=xl+0x30; 
....................                         
....................          lcd_data(xh); 
....................          lcd_data(xl);          
....................       }         
....................    } 
....................    else ds18b20_no_ds18b(0,0);      
.................... } 
....................  
.................... #include <tv_07_i2c_at24cxx.c>     
.................... //xxxxxxxxxxxxxxxxxxxxxxxxxxxxxxxxxxxxxxxxxxxxxxxxxxxxxxxx 
.................... //NGUYEN DINH PHU SU PHAM KY THUAT TP HCM 
.................... //xxxxxxxxxxxxxxxxxxxxxxxxxxxxxxxxxxxxxxxxxxxxxxxxxxxxxxxx 
....................  
.................... #define at24_addr_wr 0xa0 
.................... #define at24_addr_rd 0xa1 
.................... //xxxxxxxxxxxxxxxxxxxxxxxxxxxxxxxxxxxxxxxxxxxxxxxxxxxxxxxx 
.................... //ham reset  
.................... //xxxxxxxxxxxxxxxxxxxxxxxxxxxxxxxxxxxxxxxxxxxxxxxxxxxxxxxx 
.................... void at24_reset() 
.................... {                 
....................    i2c_start();          
....................    i2c_stop(); 
.................... } 
.................... //xxxxxxxxxxxxxxxxxxxxxxxxxxxxxxxxxxxxxxxxxxxxxxxxxxxxxxxx 
.................... //ham khoi tao ghi 
.................... //xxxxxxxxxxxxxxxxxxxxxxxxxxxxxxxxxxxxxxxxxxxxxxxxxxxxxxxx 
.................... void at24_khoi_tao_ghi(usi16 addr) 
.................... {                  
....................    i2c_start();                        
....................    i2c_write(at24_addr_wr);   
....................    i2c_write(addr>>8);          
....................    i2c_write(addr);          
.................... } 
.................... //xxxxxxxxxxxxxxxxxxxxxxxxxxxxxxxxxxxxxxxxxxxxxxxxxxxxxxxx 
.................... //ham khoi tao doc 
.................... //xxxxxxxxxxxxxxxxxxxxxxxxxxxxxxxxxxxxxxxxxxxxxxxxxxxxxxxx     
.................... void at24_khoi_tao_doc(usi16 addr) 
.................... {    
....................    i2c_start(); 
....................    i2c_write(at24_addr_wr);   
....................    i2c_write(addr>>8);         
....................    i2c_write(addr);            
....................    i2c_start();                 
....................    i2c_write(at24_addr_rd);   
.................... }     
.................... //xxxxxxxxxxxxxxxxxxxxxxxxxxxxxxxxxxxxxxxxxxxxxxxxxxxxxxxx 
.................... //ham ghi 1byte 
.................... //xxxxxxxxxxxxxxxxxxxxxxxxxxxxxxxxxxxxxxxxxxxxxxxxxxxxxxxx 
.................... void at24_ghi_1byte(usi16 addr,usi8 data_1byte) 
.................... {           
....................    i2c_start();                      
....................    i2c_write(at24_addr_wr);   
....................    i2c_write(addr>>8);          
....................    i2c_write(addr);    
....................    i2c_write(data_1byte);    
....................    i2c_stop(); 
.................... } 
.................... //xxxxxxxxxxxxxxxxxxxxxxxxxxxxxxxxxxxxxxxxxxxxxxxxxxxxxxxx 
.................... //ham doc 1 byte 
.................... //xxxxxxxxxxxxxxxxxxxxxxxxxxxxxxxxxxxxxxxxxxxxxxxxxxxxxxxx 
.................... unsigned int8 at24_doc_1byte(usi16 addr) 
.................... {    
....................    unsigned int8 data_1byte; 
....................    i2c_start();            
....................    i2c_write(at24_addr_wr);   
....................    i2c_write(addr>>8);         
....................    i2c_write(addr);            
....................    i2c_start();                 
....................    i2c_write(at24_addr_rd);   
....................    data_1byte = i2c_read(0); 
....................    i2c_stop(); 
....................    return(data_1byte); 
.................... }   
....................  
....................  
.................... //!#include <tv_08_step_motor.c>     
.................... //!#include <tv_08_dc_motor.c>  
.................... #include <tv_09_matran_led_mbi.c> 
.................... //xxxxxxxxxxxxxxxxxxxxxxxxxxxxxxxxxxxxxxxxxxxxxxxxxxxxxxxx 
.................... //NGUYEN DINH PHU SU PHAM KY THUAT TP HCM 
.................... //xxxxxxxxxxxxxxxxxxxxxxxxxxxxxxxxxxxxxxxxxxxxxxxxxxxxxxxx 
....................  
.................... //xxxxxxxxxxxxxxxxxxxxxxxxxxxxxxxxxxxxxxxxxxxxxxxxxxxxxxxx 
.................... //ham xuat 2 byte 
.................... //xxxxxxxxxxxxxxxxxxxxxxxxxxxxxxxxxxxxxxxxxxxxxxxxxxxxxxxx 
.................... void xuat_2byte(unsigned int16 v) 
.................... { 
....................    int8 i; 
....................    #bit msb = v.15 
....................    for(i=0;i<16;i++) 
*
0662:  MOVLB  1
0664:  CLRF   x40
0666:  MOVF   x40,W
0668:  SUBLW  0F
066A:  BNC   068A
....................    {                                                  
....................       output_bit(ssdo,msb);     
066C:  BTFSC  x3F.7
066E:  BRA    0674
0670:  BCF    F8D.2
0672:  BRA    0676
0674:  BSF    F8D.2
0676:  BCF    F96.2
....................       output_low(ssck);    
0678:  BCF    F96.0
067A:  BCF    F8D.0
....................       output_high(ssck); 
067C:  BCF    F96.0
067E:  BSF    F8D.0
....................       v= v<<1;          
0680:  BCF    FD8.0
0682:  RLCF   x3E,F
0684:  RLCF   x3F,F
0686:  INCF   x40,F
0688:  BRA    0666
....................    } 
068A:  MOVLB  0
068C:  RETURN 0
.................... } 
.................... //xxxxxxxxxxxxxxxxxxxxxxxxxxxxxxxxxxxxxxxxxxxxxxxxxxxxxxxx 
.................... //chuong trinh con xuat ra led ma tran 
.................... //xxxxxxxxxxxxxxxxxxxxxxxxxxxxxxxxxxxxxxxxxxxxxxxxxxxxxxxx 
.................... void xuat_matranled( usi16 mahang,usi16 macot1, 
....................                      usi16 macot2,usi16 macot3) 
.................... {       
....................    xuat_2byte(macot3);   
068E:  MOVFF  13D,13F
0692:  MOVFF  13C,13E
0696:  RCALL  0662
....................    xuat_2byte(macot2); 
0698:  MOVFF  13B,13F
069C:  MOVFF  13A,13E
06A0:  RCALL  0662
....................    xuat_2byte(macot1);   
06A2:  MOVFF  139,13F
06A6:  MOVFF  138,13E
06AA:  RCALL  0662
....................    xuat_2byte(mahang); 
06AC:  MOVFF  137,13F
06B0:  MOVFF  136,13E
06B4:  RCALL  0662
....................        
....................    output_high(rck_mtl);  
06B6:  BCF    F95.7
06B8:  BSF    F8C.7
....................    output_low(rck_mtl); 
06BA:  BCF    F95.7
06BC:  BCF    F8C.7
06BE:  RETURN 0
.................... } 
.................... //xxxxxxxxxxxxxxxxxxxxxxxxxxxxxxxxxxxxxxxxxxxx 
.................... //chuong trinh con xuat ra led ma tran 
.................... //xxxxxxxxxxxxxxxxxxxxxxxxxxxxxxxxxxxxxxxxxxxx 
.................... // void tat_matranled() 
.................... // {       
....................    // xuat_2byte(0); xuat_2byte(0); 
....................    // xuat_2byte(0); xuat_2byte(0);            
....................    // output_high(rck_matranled);  
....................    // output_low(rck_matranled); 
.................... // } 
.................... //xxxxxxxxxxxxxxxxxxxxxxxxxxxxxxxxxxxxxxxxxxxxxxxxxxxxxxxx 
.................... //hieu chinh 4bit cao 
.................... //xxxxxxxxxxxxxxxxxxxxxxxxxxxxxxxxxxxxxxxxxxxxxxxxxxxxxxxx 
.................... unsigned  int8 hieu_chinh_4bit_cao(unsigned int8 xzy) 
.................... { 
....................    int1  btg; 
....................    unsigned int8   bx;    
....................    #bit bit4  = bx.4 
....................    #bit bit5  = bx.5 
....................    #bit bit6  = bx.6 
....................    #bit bit7  = bx.7 
....................    bx=xzy; 
*
04B0:  MOVFF  13A,13C
....................    btg=bit4;   bit4=bit7;  bit7=btg; 
04B4:  MOVLB  1
04B6:  BCF    x3B.0
04B8:  BTFSC  x3C.4
04BA:  BSF    x3B.0
04BC:  BCF    x3C.4
04BE:  BTFSC  x3C.7
04C0:  BSF    x3C.4
04C2:  BCF    x3C.7
04C4:  BTFSC  x3B.0
04C6:  BSF    x3C.7
....................    btg=bit5;   bit5=bit6;  bit6=btg;       
04C8:  BCF    x3B.0
04CA:  BTFSC  x3C.5
04CC:  BSF    x3B.0
04CE:  BCF    x3C.5
04D0:  BTFSC  x3C.6
04D2:  BSF    x3C.5
04D4:  BCF    x3C.6
04D6:  BTFSC  x3B.0
04D8:  BSF    x3C.6
....................    return(bx);   
04DA:  MOVFF  13C,01
04DE:  MOVLB  0
04E0:  GOTO   0566 (RETURN)
.................... }    
....................  
....................  
....................  
.................... const unsigned char chuoi_hthi[] ={"abcd"} ;  
.................... #include<tv_09_matran_led_quet_cot.c>  
.................... #include <tv_09_font.c> 
.................... #ifndef __font_c__ 
.................... #define __font_c__ 
.................... CONST UNSIGNED INT8 MT_KYTU[][6]={ 
....................    0x00,0x00,0x00,0x00,0x00,0x00,//0X00 CHARACTER: space  
....................    0x00,0x00,0x00,0x00,0x00,0x00,//0X01 CHARACTER: space  
....................    0x00,0x00,0x00,0x00,0x00,0x00,//0X02 CHARACTER: space  
....................    0x00,0x00,0x00,0x00,0x00,0x00,//0X03 CHARACTER: space  
....................  
....................    0x00,0x00,0x00,0x00,0x00,0x00,//0X04 CHARACTER: space  
....................    0x00,0x00,0x00,0x00,0x00,0x00,//0X05 CHARACTER: space  
....................    0x00,0x00,0x00,0x00,0x00,0x00,//0X06 CHARACTER: space  
....................    0x00,0x00,0x00,0x00,0x00,0x00,//0X07 CHARACTER: space  
....................  
....................    0x00,0x00,0x00,0x00,0x00,0x00,//0X08 CHARACTER: space  
....................    0x00,0x00,0x00,0x00,0x00,0x00,//0X09 CHARACTER: space  
....................    0x00,0x00,0x00,0x00,0x00,0x00,//0X0A CHARACTER: space  
....................    0x00,0x00,0x00,0x00,0x00,0x00,//0X0b CHARACTER: space  
....................  
....................    0x00,0x00,0x00,0x00,0x00,0x00,//0X0C CHARACTER: space  
....................    0x00,0x00,0x00,0x00,0x00,0x00,//0X0D CHARACTER: space  
....................    0x00,0x00,0x00,0x00,0x00,0x00,//0X0E CHARACTER: space  
....................    0x00,0x00,0x00,0x00,0x00,0x00,//0X0F CHARACTER: space  
.................... //XXXXXXX 
....................    0x00,0x00,0x00,0x00,0x00,0x00,//0X10 CHARACTER: space  
....................    0x00,0x00,0x00,0x00,0x00,0x00,//0X11 CHARACTER: space  
....................    0x00,0x00,0x00,0x00,0x00,0x00,//0X12 CHARACTER: space  
....................    0x00,0x00,0x00,0x00,0x00,0x00,//0X13 CHARACTER: space  
....................  
....................    0x00,0x00,0x00,0x00,0x00,0x00,//0X14 CHARACTER: space  
....................    0x00,0x00,0x00,0x00,0x00,0x00,//0X15 CHARACTER: space  
....................    0x00,0x00,0x00,0x00,0x00,0x00,//0X16 CHARACTER: space  
....................    0x00,0x00,0x00,0x00,0x00,0x00,//0X17 CHARACTER: space  
....................  
....................    0x00,0x00,0x00,0x00,0x00,0x00,//0X18 CHARACTER: space  
....................    0x00,0x00,0x00,0x00,0x00,0x00,//0X19 CHARACTER: space  
....................    0x00,0x00,0x00,0x00,0x00,0x00,//0X1A CHARACTER: space  
....................    0x00,0x00,0x00,0x00,0x00,0x00,//0X1b CHARACTER: space  
....................  
....................    0x00,0x00,0x00,0x00,0x00,0x00,//0X1C CHARACTER: space  
....................    0x00,0x00,0x00,0x00,0x00,0x00,//0X1D CHARACTER: space  
....................    0x00,0x00,0x00,0x00,0x00,0x00,//0X1E CHARACTER: space  
....................    0x00,0x00,0x00,0x00,0x00,0x00,//0X1F CHARACTER: space  
.................... //XXXXXXX  
....................    0x00,0x00,0x00,0x00,0x00,0x00,//0X20 CHARACTER: space  
....................    0x00,0x00,0x7D,0x00,0x00,0x00,//0X21 CHARACTER: !       
....................    0x00,0x00,0x78,0x00,0x00,0x00,//0X22 CHARACTER: " 
....................    0x14,0x7F,0x14,0x7F,0x14,0x00,//0X23 CHARACTER: # 
....................  
....................    0x24,0x52,0xFF,0x4A,0x24,0x00,//0X24 CHARACTER: $ 
....................    0x44,0xA8,0x52,0x25,0x42,0x00,//0X25 CHARACTER: % 
....................    0x36,0x49,0x55,0x22,0x05,0x00,//0X26 CHARACTER: & 
....................    0x00,0x00,0x50,0x60,0x00,0x00,//0X27 CHARACTER: ' 
....................  
....................    0x00,0x1C,0x22,0x41,0x00,0x00,//0X28 CHARACTER: ( 
....................    0x00,0x41,0x22,0x1C,0x00,0x00,//0X29 CHARACTER: ) 
....................    0x14,0x08,0x3E,0x08,0x14,0x00,//0X2A CHARACTER: * 
....................    0x08,0x08,0x3E,0x08,0x08,0x00,//0X2B CHARACTER: + 
....................  
....................    0x00,0x09,0x0A,0x0C,0x00,0x00,//0X2C CHARACTER:  
....................    0x08,0x08,0x08,0x08,0x08,0x00,//0X2D CHARACTER: - 
....................    0x00,0x03,0x03,0x00,0x00,0x00,//0X2E CHARACTER: . 
....................    0x02,0x04,0x08,0x10,0x20,0x00,//0X2F CHARACTER: / 
.................... //XXXXXXX    
....................    0x3E,0x41,0x41,0x41,0x3E,0x00,   //0X30 SO 0   
....................    0x11,0x21,0x7F,0x01,0x01,0x00,   //0X31 SO 1    
....................    0x27,0x49,0x49,0x49,0x31,0x00,   //0X32 SO 2    
....................    0x22,0x41,0x49,0x49,0x36,0x00,   //0X33 SO 3    
....................    0x0C,0x14,0x24,0x7F,0x04,0x00,   //0X34 SO 4    
....................    0x72,0x51,0x51,0x51,0x4E,0x00,   //0X35 SO 5    
....................    0x3E,0x49,0x49,0x49,0x26,0x00,   //0X36 SO 6    
....................    0x41,0x42,0x44,0x48,0x70,0x00,   //0X37 SO 7    
....................    0x36,0x49,0x49,0x49,0x36,0x00,   //0X38 SO 8    
....................    0x32,0x49,0x49,0x49,0x3E,0x00,   //0X39 SO 9    
....................     
....................    0x00,0x66,0x66,0x00,0x00,0x00,//0X3A CHARACTER: : 
....................    0x00,0x69,0x6A,0x6C,0x00,0x00,//0X3B CHARACTER: ; 
....................    0x08,0x14,0x22,0x41,0x00,0x00,//0X3C CHARACTER: < 
....................    0x14,0x14,0x14,0x14,0x14,0x00,//0X3D CHARACTER: = 
....................    0x41,0x22,0x14,0x08,0x00,0x00,//0X3E CHARACTER: > 
....................    0x20,0x40,0x45,0x48,0x30,0x00,//0X3F CHARACTER: ? 
.................... //XXXXXXX 
....................    0x26,0x49,0x4F,0x41,0x3E,0x00,   //0X40  CHARACTER: @ 
....................    0x1F,0x24,0x44,0x24,0x1F,0x00,   //0X41 CHU A   
....................    0x7F,0x49,0x49,0x49,0x36,0x00,   //0X42 CHU B  
....................    0x3E,0x41,0x41,0x41,0x22,0x00,   //0X43 CHU C   
....................    0x7F,0x41,0x41,0x41,0x3E,0x00,   //0X44 CHU D   
....................    0x3E,0x49,0x49,0x41,0x22,0x00,   //0X45 CHU E   
....................    0x7F,0x48,0x48,0x48,0x40,0x00,   //0X46 CHU F   
....................    0x3E,0x41,0x49,0x49,0x2E,0x00,   //0X47 CHU G   
....................    0x7F,0x08,0x08,0x08,0x7F,0x00,   //0X48 CHU H   
....................    0x41,0x41,0x7F,0x41,0x41,0x00,   //0X49 CHU I   
....................    0x42,0x41,0x7E,0x40,0x40,0x00,   //0X4A CHU J   
....................    0x7F,0x08,0x14,0x22,0x41,0x00,   //0X4B CHU K   
....................    0x7F,0x01,0x01,0x01,0x02,0x00,   //0X4C CHU L   
....................    0x7F,0x20,0x10,0x20,0x7F,0x00,   //0X4D CHU M   
....................    0x7F,0x20,0x10,0x08,0x7F,0x00,   //0X4E CHU N   
....................    0x3E,0x41,0x41,0x41,0x3E,0x00,   //0X4F CHU O  
....................     
....................    0x3F,0x48,0x48,0x48,0x30,0x00,   //0X50 CHU P   
....................    0x3E,0x41,0x45,0x43,0x3E,0x00,   //0X51 CHU Q   
....................    0x3F,0x48,0x4C,0x4A,0x31,0x00,   //0X52 CHU R   
....................    0x32,0x49,0x49,0x49,0x26,0x00,   //0X53 CHU S   
....................    0x60,0x40,0x7F,0x40,0x60,0x00,   //0X54 CHU T   
....................    0x7E,0x01,0x01,0x01,0x7E,0x00,   //0X55 CHU U   
....................    0x7C,0x02,0x01,0x02,0x7C,0x00,   //0X56 CHU V   
....................    0x7E,0x01,0x06,0x01,0x7E,0x00,   //0X57 CHU W                                 
....................    0x41,0x22,0x1C,0x22,0x41,0x00,   //0X58 CHU X   
....................    0x70,0x08,0x07,0x08,0x70,0x00,   //0X59 CHU Y   
....................    0x63,0x45,0x49,0x51,0x63,0x00,   //0X5A CHU Z   
....................     
....................  
....................    0x00,0x7F,0x41,0x41,0x00,0x00,   //0X5B CHARACTER: [ 
....................    0x54,0x34,0x1F,0x34,0x54,0x00,   //0X5C CHARACTER:  
....................    0x00,0x41,0x41,0x7F,0x00,0x00,   //0X5D CHARACTER: ] 
....................    0x10,0x20,0x40,0x20,0x10,0x00,   //0X5E CHARACTER: ^ 
....................    0x01,0x01,0x01,0x01,0x01,0x00,   //0X5F CHARACTER: _ 
.................... //XXXXXXX 
....................    0x00,0x40,0x20,0x10,0x00,0x00,   //0X60 CHARACTER: \ 
....................    0x12,0x15,0x15,0x15,0x0F,0x00,   //0X61 CHARACTER: a 
....................    0x7F,0x09,0x11,0x11,0x0E,0x00,   //0X62 CHARACTER: b 
....................    0x0E,0x11,0x11,0x11,0x02,0x00,   //0X63 CHARACTER: c 
....................    0x0E,0x11,0x11,0x09,0x7F,0x00,   //0X64 CHARACTER: d 
....................    0x0E,0x15,0x15,0x15,0x0C,0x00,   //CHARACTER: e 
....................    0x08,0x3F,0x48,0x40,0x20,0x00,   //CHARACTER: f 
....................    0x18,0x25,0x25,0x25,0x3E,0x00,   //CHARACTER: g 
....................    0x7F,0x08,0x10,0x10,0x0F,0x00,   //CHARACTER: h 
....................    0x00,0x11,0x5F,0x01,0x00,0x00,   //CHARACTER: i 
....................    0x02,0x01,0x11,0x5E,0x00,0x00,   //CHARACTER: j 
....................    0x7F,0x04,0x0A,0x11,0x00,0x00,   //CHARACTER: k 
....................    0x00,0x41,0x7F,0x01,0x00,0x00,   //CHARACTER: l 
....................    0x1F,0x10,0x0C,0x10,0x0F,0x00,   //CHARACTER: m 
....................    0x3F,0x10,0x20,0x20,0x1F,0x00,   //CHARACTER: n 
....................    0x0E,0x11,0x11,0x11,0x0E,0x00,   //CHARACTER: o 
....................    0x3F,0x28,0x28,0x28,0x10,0x00,   //CHARACTER: p 
....................    0x10,0x28,0x28,0x28,0x3F,0x00,   //CHARACTER: q 
....................    0x3F,0x10,0x20,0x20,0x10,0x00,   //CHARACTER: r 
....................    0x09,0x15,0x15,0x15,0x02,0x00,   //CHARACTER: s 
....................    0x10,0x7E,0x11,0x02,0x00,0x00,   //CHARACTER: t 
....................    0x1E,0x01,0x01,0x02,0x1F,0x00,   //CHARACTER: u 
....................    0x1C,0x02,0x01,0x02,0x1C,0x00,   //CHARACTER: v 
....................    0x1E,0x01,0x02,0x01,0x1E,0x00,   //CHARACTER: w 
....................    0x11,0x0A,0x04,0x0A,0x11,0x00,   //CHARACTER: x 
....................    0x18,0x05,0x05,0x05,0x1E,0x00,   //CHARACTER: y 
....................    0x11,0x13,0x15,0x19,0x11,0x00,   //CHARACTER: z 
....................    0x00,0x08,0x36,0x41,0x00,0x00,   //CHARACTER: { 
....................    0x00,0x00,0xFF,0x00,0x00,0x00,   //CHARACTER: | 
....................    0x00,0x41,0x36,0x08,0x00,0x00,   //CHARACTER: } 
....................    0x08,0x08,0x2A,0x1C,0x08,0x00,   //CHARACTER: mtp 
....................    0x08,0x1C,0x2A,0x08,0x08,0x00    //CHARACTER: mtT 
.................... }; 
....................    #endif 
....................              
....................  
....................  
....................  
.................... const unsigned int16 mqc_do[8]={ 
.................... 0x0200,0x0800,0x2000,0x8000,0x0040,0x0010,0x0004,0x0001}; 
.................... const unsigned int16 mqc_xanh[]={ 
.................... 0x0100,0x0400,0x1000,0x4000,0x0080,0x0020,0x0008,0x0002}; 
.................... const unsigned int16 mqc_cam[]={ 
.................... 0x0300,0x0c00,0x3000,0xc000,0x00c0,0x0030,0x000c,0x0003}; 
....................  
.................... #define tg_delay 100                       
.................... #define slkt_hthi 40 
.................... unsigned int8 dl_hthi[6*slkt_hthi]; 
.................... unsigned int8 slkt,mtb0,mtb1,mtb2;               
.................... unsigned int16 ma_hang, mqc_led0, mqc_led1, mqc_led2; 
.................... unsigned int32 tt_qc=1;  
....................  
.................... unsigned int8 doi_1_bit_1_sang_thutu(usi8 bx) 
*
0586:  MOVLB  1
0588:  CLRF   x37
.................... {              
....................    unsigned int8 ttcot=0; 
....................    bx= bx>>1; 
058A:  BCF    FD8.0
058C:  RRCF   x36,F
....................    while(bx!=0) 
058E:  MOVF   x36,F
0590:  BZ    059A
....................    {                    
....................       ttcot++;  bx= bx>>1; 
0592:  INCF   x37,F
0594:  BCF    FD8.0
0596:  RRCF   x36,F
0598:  BRA    058E
....................    }    
....................    return(ttcot); 
059A:  MOVFF  137,01
059E:  MOVLB  0
05A0:  RETURN 0
.................... } 
....................  
....................  
.................... void lay_ma_1_so_matran(usi8 so,vitri_luu) 
.................... {    
....................    unsigned int8  j;  
....................    so = so + 0x30;  
....................    for(j=0;j<6 ;j++)     
....................    dl_hthi[j+vitri_luu*6]=hieu_chinh_4bit_cao(mt_kytu[so][j]); 
.................... } 
....................  
.................... void xoa_dl_hienthi() 
.................... {    
....................    unsigned int16  j;      
....................    for(j=0;j<6*slkt_hthi ;j++)   
....................    dl_hthi[j]=0; 
.................... } 
.................... void lay_ma_ky_tu_dich(usi8 slkt_x) 
.................... {                                                             
....................    unsigned int8 kytu,i,n,j;    
....................    for(n=0;n<24;n++) dl_hthi[n]=0x00;       
....................    for(i=0;i<slkt_x;i++) 
....................    { 
....................       kytu = chuoi_hthi[i]; 
....................       for(j=0;j<6 ;j++,n++)   
....................       dl_hthi[n]=hieu_chinh_4bit_cao(mt_kytu[kytu][j]); 
....................    } 
....................    for(i=0;i<24;i++,n++) dl_hthi[n]=0x00;       
.................... } 
....................  
.................... void lay_ma_quet_24_cot_xanh() 
.................... {    
....................    mtb0 = tt_qc; 
05A2:  MOVFF  12E,123
....................    mtb1 = tt_qc>>8; 
05A6:  MOVFF  12F,124
....................    mtb2 = tt_qc>>16; 
05AA:  MOVFF  130,125
....................    mqc_led0 = 0; 
05AE:  MOVLB  1
05B0:  CLRF   x29
05B2:  CLRF   x28
....................    mqc_led1 = 0; 
05B4:  CLRF   x2B
05B6:  CLRF   x2A
....................    mqc_led2 = 0; 
05B8:  CLRF   x2D
05BA:  CLRF   x2C
....................    if (mtb0!=0)   
05BC:  MOVF   x23,F
05BE:  BZ    05F2
....................    {   
....................       mtb0=doi_1_bit_1_sang_thutu(mtb0); 
05C0:  MOVFF  123,136
05C4:  MOVLB  0
05C6:  RCALL  0586
05C8:  MOVFF  01,123
....................       mqc_led0 = mqc_xanh[mtb0]; 
05CC:  BCF    FD8.0
05CE:  MOVLB  1
05D0:  RLCF   x23,W
05D2:  CLRF   03
05D4:  MOVFF  FF2,136
05D8:  BCF    FF2.7
05DA:  MOVLB  0
05DC:  RCALL  0328
05DE:  TBLRD*+
05E0:  MOVFF  FF5,03
05E4:  MOVLB  1
05E6:  BTFSC  x36.7
05E8:  BSF    FF2.7
05EA:  MOVWF  x28
05EC:  MOVFF  03,129
....................    } 
05F0:  BRA    065C
....................    else if (mtb1!=0)   
05F2:  MOVF   x24,F
05F4:  BZ    0628
....................    {         
....................       mtb1=doi_1_bit_1_sang_thutu(mtb1); 
05F6:  MOVFF  124,136
05FA:  MOVLB  0
05FC:  RCALL  0586
05FE:  MOVFF  01,124
....................       mqc_led1 = mqc_xanh[mtb1]; 
0602:  BCF    FD8.0
0604:  MOVLB  1
0606:  RLCF   x24,W
0608:  CLRF   03
060A:  MOVFF  FF2,136
060E:  BCF    FF2.7
0610:  MOVLB  0
0612:  RCALL  0328
0614:  TBLRD*+
0616:  MOVFF  FF5,03
061A:  MOVLB  1
061C:  BTFSC  x36.7
061E:  BSF    FF2.7
0620:  MOVWF  x2A
0622:  MOVFF  03,12B
....................    }                  
0626:  BRA    065C
....................    else if (mtb2!=0)   
0628:  MOVF   x25,F
062A:  BZ    065C
....................    {         
....................       mtb2=doi_1_bit_1_sang_thutu(mtb2); 
062C:  MOVFF  125,136
0630:  MOVLB  0
0632:  RCALL  0586
0634:  MOVFF  01,125
....................       mqc_led2 = mqc_xanh[mtb2]; 
0638:  BCF    FD8.0
063A:  MOVLB  1
063C:  RLCF   x25,W
063E:  CLRF   03
0640:  MOVFF  FF2,136
0644:  BCF    FF2.7
0646:  MOVLB  0
0648:  RCALL  0328
064A:  TBLRD*+
064C:  MOVFF  FF5,03
0650:  MOVLB  1
0652:  BTFSC  x36.7
0654:  BSF    FF2.7
0656:  MOVWF  x2C
0658:  MOVFF  03,12D
....................    }    
065C:  MOVLB  0
065E:  GOTO   06E4 (RETURN)
.................... } 
....................  
.................... void lay_ma_quet_24_cot_do() 
.................... {    
....................    mtb0 = tt_qc; 
....................    mtb1 = tt_qc>>8; 
....................    mtb2 = tt_qc>>16; 
....................    mqc_led0 = 0; 
....................    mqc_led1 = 0; 
....................    mqc_led2 = 0; 
....................    if (mtb0!=0)   
....................    {   
....................       mtb0=doi_1_bit_1_sang_thutu(mtb0); 
....................       mqc_led0 = mqc_do[mtb0]; 
....................    } 
....................    else if (mtb1!=0)   
....................    {         
....................       mtb1=doi_1_bit_1_sang_thutu(mtb1); 
....................       mqc_led1 = mqc_do[mtb1]; 
....................    }                  
....................    else if (mtb2!=0)   
....................    {         
....................       mtb2=doi_1_bit_1_sang_thutu(mtb2); 
....................       mqc_led2 = mqc_do[mtb2]; 
....................    }    
.................... } 
....................  
.................... void lay_ma_quet_24_cot_cam() 
.................... {    
....................    mtb0 = tt_qc; 
....................    mtb1 = tt_qc>>8; 
....................    mtb2 = tt_qc>>16; 
....................    mqc_led0 = 0; 
....................    mqc_led1 = 0; 
....................    mqc_led2 = 0; 
....................    if (mtb0!=0)   
....................    {   
....................       mtb0=doi_1_bit_1_sang_thutu(mtb0); 
....................       mqc_led0 = mqc_cam[mtb0]; 
....................    } 
....................    else if (mtb1!=0)   
....................    {         
....................       mtb1=doi_1_bit_1_sang_thutu(mtb1); 
....................       mqc_led1 = mqc_cam[mtb1]; 
....................    }                  
....................    else if (mtb2!=0)   
....................    {         
....................       mtb2=doi_1_bit_1_sang_thutu(mtb2); 
....................       mqc_led2 = mqc_cam[mtb2]; 
....................    }    
.................... } 
.................... void lay_so_luong_ky_tu_chuoi() 
.................... {    
....................    slkt=0;                                 
*
0464:  MOVLB  1
0466:  CLRF   x22
....................    while(chuoi_hthi[slkt]) 
0468:  CLRF   03
046A:  MOVF   x22,W
046C:  MOVFF  FF2,132
0470:  BCF    FF2.7
0472:  MOVLB  0
0474:  RCALL  0004
0476:  MOVLB  1
0478:  BTFSC  x32.7
047A:  BSF    FF2.7
047C:  MOVWF  01
047E:  MOVF   01,F
0480:  BZ    0486
....................    { 
....................       slkt++; 
0482:  INCF   x22,F
0484:  BRA    0468
....................    } 
0486:  MOVLB  0
0488:  GOTO   07FE (RETURN)
.................... }      
.................... //xxxxxxxxxxxxxxxxxxxxxxxxxxxxxxxxxxxxxxxxxxxxxxxxxxxxxx 
.................... void quet_1kytu(usi8 j) 
.................... {  
....................    ma_hang = dl_hthi[j]; 
....................    xuat_matranled(ma_hang,mqc_led2,mqc_led1,mqc_led0); 
....................    delay_us(tg_delay);    
....................    xuat_matranled(0,0,0,0); 
....................    tt_qc = tt_qc << 1;          
.................... } 
....................  
.................... void quet_4kytu_mau_xdxd(usi8 sck,vitri) 
.................... { 
....................    unsigned int8 ck, j; 
....................    for (ck=0;ck<sck;ck++) 
....................    { 
....................       tt_qc = 1; 
....................        
....................       for(j=vitri;j<vitri+6;j++)  
....................       { 
....................          lay_ma_quet_24_cot_xanh(); 
....................          quet_1kytu(j); 
....................       } 
....................        
....................       for(j=vitri+6;j<vitri+12;j++) 
....................       { 
....................          lay_ma_quet_24_cot_do(); 
....................          quet_1kytu(j); 
....................           
....................       } 
....................        
....................       for(j=vitri+12;j<vitri+18;j++)  
....................       {          
....................          lay_ma_quet_24_cot_xanh(); 
....................          quet_1kytu(j); 
....................       } 
....................        
....................       for(j=vitri+18;j<vitri+24;j++)  
....................       {          
....................          lay_ma_quet_24_cot_do(); 
....................          quet_1kytu(j); 
....................       } 
....................    } 
.................... }    
.................... void quet_4kytu_mau_xxdd(usi8 sck,vitri) 
.................... { 
....................    unsigned int8 ck, j; 
....................    for (ck=0;ck<sck;ck++) 
....................    { 
....................       tt_qc = 1; 
....................        
....................       for(j=vitri;j<vitri+12;j++)  
....................       { 
....................          lay_ma_quet_24_cot_xanh(); 
....................          quet_1kytu(j); 
....................       }        
....................       for(j=vitri+12;j<vitri+24;j++)  
....................       {          
....................          lay_ma_quet_24_cot_do(); 
....................          quet_1kytu(j); 
....................       } 
....................    } 
.................... }    
.................... void quet_4kytu_mau_xanh(usi8 sck,vitri) 
.................... { 
....................    unsigned int8 ck, j; 
....................    for (ck=0;ck<sck;ck++) 
*
06C0:  MOVLB  1
06C2:  CLRF   x34
06C4:  MOVF   x32,W
06C6:  SUBWF  x34,W
06C8:  BC    0752
....................    { 
....................       tt_qc = 1; 
06CA:  CLRF   x31
06CC:  CLRF   x30
06CE:  CLRF   x2F
06D0:  MOVLW  01
06D2:  MOVWF  x2E
....................       for(j=vitri;j<vitri+24;j++)                           
06D4:  MOVFF  133,135
06D8:  MOVLW  18
06DA:  ADDWF  x33,W
06DC:  SUBWF  x35,W
06DE:  BC    074E
....................       { 
....................          lay_ma_quet_24_cot_xanh(); 
06E0:  MOVLB  0
06E2:  BRA    05A2
....................          ma_hang = dl_hthi[j]; 
06E4:  CLRF   03
06E6:  MOVLB  1
06E8:  MOVF   x35,W
06EA:  ADDLW  32
06EC:  MOVWF  FE9
06EE:  MOVLW  00
06F0:  ADDWFC 03,W
06F2:  MOVWF  FEA
06F4:  CLRF   x27
06F6:  MOVFF  FEF,126
....................          xuat_matranled(ma_hang,mqc_led2,mqc_led1,mqc_led0); 
06FA:  MOVFF  127,137
06FE:  MOVFF  126,136
0702:  MOVFF  12D,139
0706:  MOVFF  12C,138
070A:  MOVFF  12B,13B
070E:  MOVFF  12A,13A
0712:  MOVFF  129,13D
0716:  MOVFF  128,13C
071A:  MOVLB  0
071C:  RCALL  068E
....................          delay_us(tg_delay);    
071E:  MOVLW  A6
0720:  MOVWF  00
0722:  DECFSZ 00,F
0724:  BRA    0722
0726:  NOP   
....................          xuat_matranled(0,0,0,0); 
0728:  MOVLB  1
072A:  CLRF   x37
072C:  CLRF   x36
072E:  CLRF   x39
0730:  CLRF   x38
0732:  CLRF   x3B
0734:  CLRF   x3A
0736:  CLRF   x3D
0738:  CLRF   x3C
073A:  MOVLB  0
073C:  RCALL  068E
....................          tt_qc = tt_qc << 1;          
073E:  BCF    FD8.0
0740:  MOVLB  1
0742:  RLCF   x2E,F
0744:  RLCF   x2F,F
0746:  RLCF   x30,F
0748:  RLCF   x31,F
074A:  INCF   x35,F
074C:  BRA    06D8
....................       }                                              
074E:  INCF   x34,F
0750:  BRA    06C4
....................    } 
0752:  MOVLB  0
0754:  GOTO   0810 (RETURN)
.................... }         
....................      
....................  
.................... void quet_4kytu_mau_do(usi8 sck,vitri) 
.................... {    
....................    unsigned int8 ck, j; 
....................    for (ck=0;ck<sck;ck++) 
....................    {      
....................       tt_qc = 1; 
....................       for(j=vitri;j<vitri+24;j++) 
....................       { 
....................          lay_ma_quet_24_cot_do(); 
....................          ma_hang = dl_hthi[j]; 
....................          xuat_matranled(ma_hang,mqc_led2,mqc_led1,mqc_led0);      
....................          delay_us(tg_delay); 
....................          xuat_matranled(0,0,0,0); 
....................          tt_qc = tt_qc <<1; 
....................       } 
....................    } 
.................... }   
....................  
.................... void quet_4kytu_mau_cam(usi8 sck,vitri) 
.................... {    
....................    unsigned int8 ck, j; 
....................    for (ck=0;ck<sck;ck++) 
....................    {      
....................       tt_qc = 1; 
....................       for(j=vitri;j<vitri+24;j++) 
....................       {                    
....................          lay_ma_quet_24_cot_cam(); 
....................          ma_hang = dl_hthi[j]; 
....................          xuat_matranled(ma_hang,mqc_led2,mqc_led1,mqc_led0);      
....................          delay_us(tg_delay);            
....................          xuat_matranled(0,0,0,0); 
....................          tt_qc = tt_qc <<1; 
....................       }                                                   
....................    } 
.................... }   
....................  
....................  
....................  
....................  
.................... void lay_ma_ky_tu(unsigned int8 slkt_x) { 
....................    unsigned int8 kytu,i,n,j ;  
....................    n=0; 
*
04E4:  MOVLB  1
04E6:  CLRF   x35
....................    for(i=0;i<slkt_x;i++){ 
04E8:  CLRF   x34
04EA:  MOVF   x32,W
04EC:  SUBWF  x34,W
04EE:  BC    0580
....................       kytu=chuoi_hthi[i]; 
04F0:  CLRF   03
04F2:  MOVF   x34,W
04F4:  MOVFF  FF2,137
04F8:  BCF    FF2.7
04FA:  MOVLB  0
04FC:  RCALL  0004
04FE:  MOVLB  1
0500:  BTFSC  x37.7
0502:  BSF    FF2.7
0504:  MOVWF  x33
....................       for(j=0;j<6;j++,n++){ 
0506:  CLRF   x36
0508:  MOVF   x36,W
050A:  SUBLW  05
050C:  BNC   057C
....................          dl_hthi[n] = hieu_chinh_4bit_cao(mt_kytu[kytu][j]); 
050E:  CLRF   03
0510:  MOVF   x35,W
0512:  ADDLW  32
0514:  MOVWF  01
0516:  MOVLW  00
0518:  ADDWFC 03,F
051A:  MOVFF  01,137
051E:  MOVFF  03,138
0522:  CLRF   x3A
0524:  MOVFF  133,139
0528:  CLRF   x3C
052A:  MOVLW  06
052C:  MOVWF  x3B
052E:  MOVLB  0
0530:  BRA    048C
0532:  MOVFF  02,13A
0536:  MOVFF  01,139
053A:  MOVLB  1
053C:  MOVF   x36,W
053E:  ADDWF  01,W
0540:  MOVWF  01
0542:  MOVLW  00
0544:  ADDWFC 02,W
0546:  MOVWF  03
0548:  MOVF   01,W
054A:  MOVFF  FF2,139
054E:  BCF    FF2.7
0550:  MOVFF  03,FF7
0554:  MOVLB  0
0556:  RCALL  001A
0558:  MOVLB  1
055A:  BTFSC  x39.7
055C:  BSF    FF2.7
055E:  MOVWF  x39
0560:  MOVWF  x3A
0562:  MOVLB  0
0564:  BRA    04B0
0566:  MOVFF  138,FEA
056A:  MOVFF  137,FE9
056E:  MOVFF  01,FEF
0572:  MOVLB  1
0574:  MOVF   x36,W
0576:  INCF   x36,F
0578:  INCF   x35,F
057A:  BRA    0508
....................        
....................       } 
057C:  INCF   x34,F
057E:  BRA    04EA
....................     
....................    } 
0580:  MOVLB  0
0582:  GOTO   0804 (RETURN)
....................  
.................... } 
.................... void main() {                                                             
*
0758:  CLRF   FF8
075A:  BCF    FD0.7
075C:  BSF    FB8.3
075E:  MOVLW  08
0760:  MOVWF  FAF
0762:  MOVLW  02
0764:  MOVWF  FB0
0766:  MOVLW  A6
0768:  MOVWF  FAC
076A:  MOVLW  90
076C:  MOVWF  FAB
076E:  CLRF   07
0770:  CLRF   06
0772:  SETF   2A
0774:  MOVLW  22
0776:  MOVWF  2F
0778:  MOVLW  20
077A:  MOVWF  30
077C:  BCF    31.0
077E:  BCF    31.1
0780:  BCF    31.2
0782:  MOVLB  1
0784:  CLRF   x31
0786:  CLRF   x30
0788:  CLRF   x2F
078A:  MOVLW  01
078C:  MOVWF  x2E
078E:  MOVF   FC1,W
0790:  ANDLW  C0
0792:  IORLW  0F
0794:  MOVWF  FC1
0796:  MOVLW  07
0798:  MOVWF  FB4
079A:  BRA    07BA
079C:  DATA 0C,40
079E:  DATA 08,FF
07A0:  DATA 16,80
07A2:  DATA 30,33
07A4:  DATA 15,03
07A6:  DATA 16,02
07A8:  DATA 21,90
07AA:  DATA 92,30
07AC:  DATA 30,10
07AE:  DATA 08,20
07B0:  DATA 02,20
07B2:  DATA 90,96
07B4:  DATA 00,00
07B6:  DATA 00,00
07B8:  DATA 00,00
07BA:  MOVLW  00
07BC:  MOVWF  FF8
07BE:  MOVLW  07
07C0:  MOVWF  FF7
07C2:  MOVLW  9C
07C4:  MOVWF  FF6
07C6:  TBLRD*+
07C8:  MOVF   FF5,W
07CA:  MOVWF  00
07CC:  XORLW  00
07CE:  BZ    07F6
07D0:  TBLRD*+
07D2:  MOVF   FF5,W
07D4:  MOVWF  01
07D6:  BTFSC  FE8.7
07D8:  BRA    07E4
07DA:  ANDLW  0F
07DC:  MOVWF  FEA
07DE:  TBLRD*+
07E0:  MOVFF  FF5,FE9
07E4:  BTFSC  01.6
07E6:  TBLRD*+
07E8:  BTFSS  01.6
07EA:  TBLRD*+
07EC:  MOVFF  FF5,FEE
07F0:  DCFSNZ 00,F
07F2:  BRA    07C6
07F4:  BRA    07E8
07F6:  CLRF   FF8
....................    set_up_port();                                                                           
07F8:  MOVLB  0
07FA:  BRA    042A
....................    lay_so_luong_ky_tu_chuoi() ;                                                                
07FC:  BRA    0464
....................    lay_ma_ky_tu(slkt);                            
07FE:  MOVFF  122,132
0802:  BRA    04E4
....................    while(true){                                   
....................       quet_4kytu_mau_xanh(50,0);                       
0804:  MOVLW  32
0806:  MOVLB  1
0808:  MOVWF  x32
080A:  CLRF   x33
080C:  MOVLB  0
080E:  BRA    06C0
0810:  BRA    0804
....................                                          
....................    } 
....................                                            
.................... } 
0812:  SLEEP 

Configuration Fuses:
   Word  1: CC07   PLL12 CPUDIV1 NOUSBDIV HS FCMEN IESO
   Word  2: 1E3E   PUT BROWNOUT BORV21 VREGEN NOWDT WDT32768
   Word  3: 8700   CCP2C1 PBADEN LPT1OSC MCLR
   Word  4: 00A1   STVREN NOLVP ICSP2 NOXINST NODEBUG
   Word  5: C00F   NOPROTECT NOCPB NOCPD
   Word  6: E00F   NOWRT NOWRTC NOWRTB NOWRTD
   Word  7: 400F   NOEBTR NOEBTRB
