CCS PCH C Compiler, Version 5.011, 32155               20-Nov-23 13:50

               Filename:   E:\TT Vi Xu Ly\Code\Chuong 6\bai_622_glcd_dem_sp_t0\bai_622_glcd_dem_sp_t0.lst

               ROM used:   3610 bytes (11%)
                           Largest free fragment is 29158
               RAM used:   1090 (53%) at main() level
                           1112 (54%) worst case
               Stack used: 10 locations
               Stack size: 31

*
0000:  GOTO   0C8E
.................... #include<tv_kit_vdk_pic_all.c> 
.................... //xxxxxxxxxxxxxxxxxxxxxxxxxxxxxxxxxxxxxxxxxxxxxxxxxxxxxxxx 
.................... //NGUYEN DINH PHU SU PHAM KY THUAT TP HCM 
.................... //xxxxxxxxxxxxxxxxxxxxxxxxxxxxxxxxxxxxxxxxxxxxxxxxxxxxxxxx 
.................... #include <tv_00_define_18f4550.c>                                            
.................... //xxxxxxxxxxxxxxxxxxxxxxxxxxxxxxxxxxxxxxxxxxxxxxxxxxxxxxxx 
.................... //NGUYEN DINH PHU SU PHAM KY THUAT TP HCM 
.................... //xxxxxxxxxxxxxxxxxxxxxxxxxxxxxxxxxxxxxxxxxxxxxxxxxxxxxxxx 
....................  
.................... //xxxxxxxxxxxxxxxxxxxxxxxxxxxxxxxxxxxxxxxxxxxxxxxxxxxxxxxx 
.................... //cau hinh vi dieu khien pic        
.................... //xxxxxxxxxxxxxxxxxxxxxxxxxxxxxxxxxxxxxxxxxxxxxxxxxxxxxxxx 
.................... #include <18f4550.h> 
.................... //////// Standard Header file for the PIC18F4550 device //////////////// 
.................... #device PIC18F4550 
0004:  CLRF   FF7
0006:  ADDLW  14
0008:  MOVWF  FF6
000A:  MOVLW  00
000C:  ADDWFC FF7,F
000E:  TBLRD*+
0010:  MOVF   FF5,W
0012:  RETURN 0
0014:  DATA C0,F9
0016:  DATA A4,B0
0018:  DATA 99,92
001A:  DATA 82,F8
001C:  DATA 80,90
001E:  DATA 88,83
0020:  DATA C6,A1
0022:  DATA 86,8E
0024:  CLRF   FF7
0026:  ADDLW  34
0028:  MOVWF  FF6
002A:  MOVLW  00
002C:  ADDWFC FF7,F
002E:  TBLRD*+
0030:  MOVF   FF5,W
0032:  RETURN 0
0034:  DATA 80,C0
0036:  DATA 94,D4
0038:  CLRF   FF7
003A:  ADDLW  48
003C:  MOVWF  FF6
003E:  MOVLW  00
0040:  ADDWFC FF7,F
0042:  TBLRD*+
0044:  MOVF   FF5,W
0046:  RETURN 0
0048:  DATA 00,01
004A:  DATA 02,04
004C:  DATA 03,05
004E:  DATA 01,02
0050:  DATA 20,03
0052:  DATA 07,03
0054:  DATA 06,06
0056:  DATA 02,04
0058:  DATA 03,03
005A:  DATA 06,06
005C:  DATA 02,03
005E:  DATA 03,05
0060:  DATA 07,03
0062:  DATA 07,20
0064:  DATA 20,07
0066:  DATA 07,06
0068:  DATA 06,03
006A:  DATA 03,05
006C:  DATA 00,06
006E:  DATA 06,04
0070:  DATA 03,05
0072:  DATA 01,01
0074:  DATA 07,20
0076:  DATA 20,07
0078:  DATA 00,06
007A:  DATA 02,04
007C:  DATA 03,05
007E:  DATA 00,06
0080:  DATA 02,03
0082:  DATA 03,05
0084:  CLRF   FF7
0086:  ADDLW  94
0088:  MOVWF  FF6
008A:  MOVLW  00
008C:  ADDWFC FF7,F
008E:  TBLRD*+
0090:  MOVF   FF5,W
0092:  RETURN 0
0094:  DATA 07,0F
0096:  DATA 1F,1F
0098:  DATA 1F,1F
009A:  DATA 1F,1F
009C:  DATA 1F,1F
009E:  DATA 1F,00
00A0:  DATA 00,00
00A2:  DATA 00,00
00A4:  DATA 1C,1E
00A6:  DATA 1F,1F
00A8:  DATA 1F,1F
00AA:  DATA 1F,1F
00AC:  DATA 00,00
00AE:  DATA 00,00
00B0:  DATA 00,1F
00B2:  DATA 1F,1F
00B4:  DATA 1F,1F
00B6:  DATA 1F,1F
00B8:  DATA 1F,1F
00BA:  DATA 0F,07
00BC:  DATA 1F,1F
00BE:  DATA 1F,1F
00C0:  DATA 1F,1F
00C2:  DATA 1E,1C
00C4:  DATA 1F,1F
00C6:  DATA 1F,00
00C8:  DATA 00,00
00CA:  DATA 1F,1F
00CC:  DATA 1F,1F
00CE:  DATA 1F,1F
00D0:  DATA 1F,1F
00D2:  DATA 1F,1F
00D4:  DATA 2E,00
00D6:  DATA 2E,00
00D8:  DATA 2E,00
00DA:  DATA 4E,4F
00DC:  DATA 20,44
00DE:  DATA 48,54
00E0:  DATA 31,31
00E2:  DATA 00,00
00E4:  DATA 44,4F
00E6:  DATA 43,20
00E8:  DATA 53,41
00EA:  DATA 49,20
00EC:  DATA 44,55
00EE:  DATA 20,4C
00F0:  DATA 49,45
00F2:  DATA 55,20
00F4:  DATA 44,48
00F6:  DATA 54,31
00F8:  DATA 31,00
00FA:  DATA 4E,4F
00FC:  DATA 20,44
00FE:  DATA 53,31
0100:  DATA 38,42
0102:  DATA 32,30
0104:  DATA 00,00
0106:  DATA 55,50
0108:  DATA 20,20
010A:  DATA 00,00
010C:  DATA 44,57
010E:  DATA 20,20
0110:  DATA 00,00
0112:  DATA 52,55
0114:  DATA 4E,20
0116:  DATA 20,00
0118:  DATA 53,54
011A:  DATA 4F,50
011C:  DATA 20,20
011E:  DATA 00,00
0120:  DATA 44,65
0122:  DATA 6D,20
0124:  DATA 73,61
0126:  DATA 6E,20
0128:  DATA 70,68
012A:  DATA 61,6D
012C:  DATA 20,64
012E:  DATA 75,6E
0130:  DATA 67,20
0132:  DATA 54,30
0134:  DATA 00,00
0136:  DATA 47,48
0138:  DATA 44,00
013A:  DATA 47,54
013C:  DATA 44,00
013E:  DATA 54,72
0140:  DATA 61,6E
0142:  DATA 67,20
0144:  DATA 74,68
0146:  DATA 61,69
0148:  DATA 3A,20
014A:  DATA 53,74
014C:  DATA 6F,70
014E:  DATA 20,20
0150:  DATA 55,50
0152:  DATA 00,00
0154:  DATA 44,65
0156:  DATA 6D,20
0158:  DATA 53,61
015A:  DATA 6E,20
015C:  DATA 50,68
015E:  DATA 61,6D
0160:  DATA 20,54
0162:  DATA 30,00
0164:  DATA 47,69
0166:  DATA 6F,69
0168:  DATA 20,68
016A:  DATA 61,6E
016C:  DATA 20,64
016E:  DATA 65,6D
0170:  DATA 3A,20
0172:  DATA 35,30
0174:  DATA 00,00
0176:  DATA 47,69
0178:  DATA 61,20
017A:  DATA 74,72
017C:  DATA 69,20
017E:  DATA 64,65
0180:  DATA 6D,20
0182:  DATA 3A,20
0184:  DATA 20,00
*
037A:  TBLRD*+
037C:  MOVF   FF5,F
037E:  BZ    0398
0380:  MOVFF  FF6,442
0384:  MOVFF  FF7,443
0388:  MOVFF  FF5,44F
038C:  RCALL  0370
038E:  MOVFF  442,FF6
0392:  MOVFF  443,FF7
0396:  BRA    037A
0398:  RETURN 0
*
03D6:  MOVLB  4
03D8:  MOVF   x48,W
03DA:  XORWF  x4A,W
03DC:  ANDLW  80
03DE:  MOVWF  x4C
03E0:  BTFSS  x48.7
03E2:  BRA    03EE
03E4:  COMF   x47,F
03E6:  COMF   x48,F
03E8:  INCF   x47,F
03EA:  BTFSC  FD8.2
03EC:  INCF   x48,F
03EE:  BTFSS  x4A.7
03F0:  BRA    03FC
03F2:  COMF   x49,F
03F4:  COMF   x4A,F
03F6:  INCF   x49,F
03F8:  BTFSC  FD8.2
03FA:  INCF   x4A,F
03FC:  CLRF   01
03FE:  CLRF   02
0400:  CLRF   00
0402:  CLRF   03
0404:  MOVF   x4A,W
0406:  BNZ   040C
0408:  MOVF   x49,W
040A:  BZ    043C
040C:  MOVLW  10
040E:  MOVWF  x4B
0410:  BCF    FD8.0
0412:  RLCF   x47,F
0414:  RLCF   x48,F
0416:  RLCF   00,F
0418:  RLCF   03,F
041A:  MOVF   x4A,W
041C:  SUBWF  03,W
041E:  BNZ   0424
0420:  MOVF   x49,W
0422:  SUBWF  00,W
0424:  BNC   0434
0426:  MOVF   x49,W
0428:  SUBWF  00,F
042A:  BTFSS  FD8.0
042C:  DECF   03,F
042E:  MOVF   x4A,W
0430:  SUBWF  03,F
0432:  BSF    FD8.0
0434:  RLCF   01,F
0436:  RLCF   02,F
0438:  DECFSZ x4B,F
043A:  BRA    0410
043C:  BTFSS  x4C.7
043E:  BRA    044A
0440:  COMF   01,F
0442:  COMF   02,F
0444:  INCF   01,F
0446:  BTFSC  FD8.2
0448:  INCF   02,F
044A:  MOVLB  0
044C:  RETURN 0
044E:  CLRF   00
0450:  CLRF   01
0452:  MOVLB  4
0454:  MOVF   x4E,W
0456:  BCF    FD8.0
0458:  BTFSC  x4F.0
045A:  ADDWF  00,F
045C:  RRCF   00,F
045E:  RRCF   01,F
0460:  BTFSC  x4F.1
0462:  ADDWF  00,F
0464:  RRCF   00,F
0466:  RRCF   01,F
0468:  BTFSC  x4F.2
046A:  ADDWF  00,F
046C:  RRCF   00,F
046E:  RRCF   01,F
0470:  BTFSC  x4F.3
0472:  ADDWF  00,F
0474:  RRCF   00,F
0476:  RRCF   01,F
0478:  BTFSC  x4F.4
047A:  ADDWF  00,F
047C:  RRCF   00,F
047E:  RRCF   01,F
0480:  BTFSC  x4F.5
0482:  ADDWF  00,F
0484:  RRCF   00,F
0486:  RRCF   01,F
0488:  BTFSC  x4F.6
048A:  ADDWF  00,F
048C:  RRCF   00,F
048E:  RRCF   01,F
0490:  BTFSC  x4F.7
0492:  ADDWF  00,F
0494:  RRCF   00,F
0496:  RRCF   01,F
0498:  MOVLB  0
049A:  GOTO   04D6 (RETURN)
*
0632:  TBLRD*+
0634:  MOVF   FF5,F
0636:  BZ    0650
0638:  MOVFF  FF6,442
063C:  MOVFF  FF7,443
0640:  MOVFF  FF5,446
0644:  RCALL  0628
0646:  MOVFF  442,FF6
064A:  MOVFF  443,FF7
064E:  BRA    0632
0650:  RETURN 0
*
093C:  MOVLB  4
093E:  MOVF   x49,W
0940:  CLRF   01
0942:  SUBWF  x48,W
0944:  BC    094C
0946:  MOVFF  448,00
094A:  BRA    0964
094C:  CLRF   00
094E:  MOVLW  08
0950:  MOVWF  x4A
0952:  RLCF   x48,F
0954:  RLCF   00,F
0956:  MOVF   x49,W
0958:  SUBWF  00,W
095A:  BTFSC  FD8.0
095C:  MOVWF  00
095E:  RLCF   01,F
0960:  DECFSZ x4A,F
0962:  BRA    0952
0964:  MOVLB  0
0966:  RETURN 0
*
0A60:  CLRF   01
0A62:  CLRF   02
0A64:  CLRF   00
0A66:  CLRF   03
0A68:  MOVLB  4
0A6A:  MOVF   x4E,W
0A6C:  BNZ   0A72
0A6E:  MOVF   x4D,W
0A70:  BZ    0AA2
0A72:  MOVLW  10
0A74:  MOVWF  x4F
0A76:  BCF    FD8.0
0A78:  RLCF   x4B,F
0A7A:  RLCF   x4C,F
0A7C:  RLCF   00,F
0A7E:  RLCF   03,F
0A80:  MOVF   x4E,W
0A82:  SUBWF  03,W
0A84:  BNZ   0A8A
0A86:  MOVF   x4D,W
0A88:  SUBWF  00,W
0A8A:  BNC   0A9A
0A8C:  MOVF   x4D,W
0A8E:  SUBWF  00,F
0A90:  BTFSS  FD8.0
0A92:  DECF   03,F
0A94:  MOVF   x4E,W
0A96:  SUBWF  03,F
0A98:  BSF    FD8.0
0A9A:  RLCF   01,F
0A9C:  RLCF   02,F
0A9E:  DECFSZ x4F,F
0AA0:  BRA    0A76
0AA2:  MOVLB  0
0AA4:  RETURN 0
....................  
.................... #list 
....................  
.................... #device  adc=10 
.................... #fuses   nowdt,put,hs,noprotect,nolvp,cpudiv1,NOUSBDIV,     
.................... #use     delay(clock=20000000)                                                       
*
02CA:  MOVLW  04
02CC:  MOVWF  FEA
02CE:  MOVLW  45
02D0:  MOVWF  FE9
02D2:  MOVF   FEF,W
02D4:  BZ    02F0
02D6:  MOVLW  06
02D8:  MOVWF  01
02DA:  CLRF   00
02DC:  DECFSZ 00,F
02DE:  BRA    02DC
02E0:  DECFSZ 01,F
02E2:  BRA    02DA
02E4:  MOVLW  7B
02E6:  MOVWF  00
02E8:  DECFSZ 00,F
02EA:  BRA    02E8
02EC:  DECFSZ FEF,F
02EE:  BRA    02D6
02F0:  RETURN 0
*
0652:  MOVLW  03
0654:  MOVLB  4
0656:  SUBWF  x45,F
0658:  BNC   066E
065A:  MOVLW  04
065C:  MOVWF  FEA
065E:  MOVLW  45
0660:  MOVWF  FE9
0662:  MOVF   FEF,W
0664:  BZ    066E
0666:  BRA    066A
0668:  BRA    066A
066A:  DECFSZ FEF,F
066C:  BRA    0668
066E:  MOVLB  0
0670:  RETURN 0
.................... #use     i2c(master,slow,sda=pin_b0,scl=pin_b1)       
.................... #use     rs232(baud=9600, xmit=pin_c6,rcv=pin_c7)     
.................... //xxxxxxxxxxxxxxxxxxxxxxxxxxxxxxxxxxxxxxxxxxxxxxxxxxxxxxxx    
.................... //dinh nghia lai ten cac kieu du lieu cho gon 
.................... //xxxxxxxxxxxxxxxxxxxxxxxxxxxxxxxxxxxxxxxxxxxxxxxxxxxxxxxx 
.................... #define usi8  unsigned int8      
.................... #define usi16 unsigned int16                           
.................... #define usi32 unsigned int32                                                                     
.................... #define si8   signed   int8                                 
.................... #define si16  signed   int16  
.................... #define si32  signed   int32 
.................... //xxxxxxxxxxxxxxxxxxxxxxxxxxxxxxxxxxxxxxxxxxxxxxxxxxxxxxxx 
.................... //dinh nghia 1 so tu thuong dung 
.................... //xxxxxxxxxxxxxxxxxxxxxxxxxxxxxxxxxxxxxxxxxxxxxxxxxxxxxxxx 
.................... #define co_reset true 
.................... #define no_reset false  
....................  
.................... #define tt_on    1           
.................... #define tt_off   0                     
.................... #define enable   1                         
.................... #define disable  0 
.................... #define sang     1           
.................... #define tat      0   
.................... #define tat_l7d  0xff      
.................... #define cx_vn    true     //co xoa so 0 vo nghia         
.................... #define kx_vn    false    //khong xoa so 0 vo nghia           
.................... #define co_fill  true 
.................... #define no_fill  false  
.................... #define c_reset  1           
.................... #define k_reset  0                                          
.................... //xxxxxxxxxxxxxxxxxxxxxxxxxxxxxxxxxxxxxxxxxxxxxxxxxxxxxxxx 
.................... //dinh nghia ten cho 4 nut nhan  
.................... //xxxxxxxxxxxxxxxxxxxxxxxxxxxxxxxxxxxxxxxxxxxxxxxxxxxxxxxx 
.................... #ifndef bt0 
.................... #define bt0    pin_b5 
.................... #endif  
....................  
.................... #ifndef bt1     
.................... #define bt1    pin_b4 
.................... #endif  
....................                    
.................... #ifndef bt2     
.................... #define bt2    pin_b3 
.................... #endif  
....................  
.................... #ifndef bt3 
.................... #define bt3    pin_b2 
.................... #endif  
....................  
.................... #define on     bt0    //dk led don, motor  
.................... #define off    bt1 
.................... #define inv    bt2 
....................                                 
.................... #define up     bt0    //dk led don 
.................... #define mod    bt1 
.................... #define dw     bt2 
.................... #define clr    bt3 
....................  
.................... #define stop   bt1 
....................  
.................... #define on1    bt0      
.................... #define off1   bt1 
.................... #define on2    bt2        
.................... #define off2   bt3              
.................... //xxxxxxxxxxxxxxxxxxxxxxxxxxxxxxxxxxxxxxxxxxxxxxxxxxxxxxxx   
.................... //dinh nghia port giao tiep cam bien sieu am hcsr-04  
.................... //xxxxxxxxxxxxxxxxxxxxxxxxxxxxxxxxxxxxxxxxxxxxxxxxxxxxxxxx   
.................... #define trig   pin_e1            
.................... #define echo   pin_a3                  
.................... //xxxxxxxxxxxxxxxxxxxxxxxxxxxxxxxxxxxxxxxxxxxxxxxxxxxxxxxx   
.................... //dinh nghia port giao tiep CB nhiet va do am 1 day DHT11    
.................... //xxxxxxxxxxxxxxxxxxxxxxxxxxxxxxxxxxxxxxxxxxxxxxxxxxxxxxxx   
.................... #define dht11 pin_d1 
.................... //xxxxxxxxxxxxxxxxxxxxxxxxxxxxxxxxxxxxxxxxxxxxxxxxxxxxxxxx   
.................... //dinh nghia port giao tiep noi tiep 6 module 
.................... //xxxxxxxxxxxxxxxxxxxxxxxxxxxxxxxxxxxxxxxxxxxxxxxxxxxxxxxx                                        
.................... #define ssdo      pin_e2          
.................... #define ssck      pin_e0          
....................  
.................... #define rck_mtl   pin_d7 
.................... #define rck_4l7d  pin_d6           
.................... #define rck_8l7dq pin_d5         
.................... #define rck_32led pin_d4 
.................... #define rck_rlb   pin_d3              
.................... #define rck_lcd   pin_d2          
....................  
.................... #define g_all     pin_d0           
....................   
.................... //xxxxxxxxxxxxxxxxxxxxxxxxxxxxxxxxxxxxxxxxxxxxxxxxxxxxxxxx  
.................... //khai bao  module relay, triac, buzzer, dong co 
.................... //xxxxxxxxxxxxxxxxxxxxxxxxxxxxxxxxxxxxxxxxxxxxxxxxxxxxxxxx  
.................... unsigned int16 rbdc;                           
.................... #bit step_motor_enable = rbdc.0     
.................... #bit step_motor_in1    = rbdc.1     
.................... #bit step_motor_in2    = rbdc.2 
.................... #bit step_motor_in3    = rbdc.3 
.................... #bit step_motor_in4    = rbdc.4 
.................... #bit dc_enable         = rbdc.5     
.................... #bit pwrkey            = rbdc.6     
....................  
.................... #bit buzzer            = rbdc.8    //1=on,0=off 
.................... #bit triac_1           = rbdc.9    //1=on,0=off 
.................... #bit triac_2           = rbdc.10   //1=on,0=off 
.................... #bit relay_1           = rbdc.11   //0=on,1=off 
.................... #bit relay_2           = rbdc.12   //0=on,1=off       
....................  
.................... //xxxxxxxxxxxxxxxxxxxxxxxxxxxxxxxxxxxxxxxxxxxxxxxxxxxxxxxx  
.................... //Khai bao mang chua 16 ma 7 doan tu 0 den F 
.................... //xxxxxxxxxxxxxxxxxxxxxxxxxxxxxxxxxxxxxxxxxxxxxxxxxxxxxxxx   
.................... const unsigned char ma7doan[16]= { 
....................    0xc0,0xf9,0xa4,0xb0,0x99,0x92,0x82,0xf8,         
....................    0x80,0x90,0x88,0x83,0xc6,0xa1,0x86,0x8e}; 
.................... #define     maso0    0xc0 
....................  
.................... //xxxxxxxxxxxxxxxxxxxxxxxxxxxxxxxxxxxxxxxxxxxxxxxxxxxxxxxx  
.................... //ham 102: xuat 1 byte ra thanh ghi dich 
.................... //xxxxxxxxxxxxxxxxxxxxxxxxxxxxxxxxxxxxxxxxxxxxxxxxxxxxxxxx     
.................... void xuat_1byte(unsigned int8 x) 
.................... { 
....................    unsigned int8   sb;    
....................    #bit msb  = x.7;   
....................    for (sb=0;sb<8;sb++) 
*
0186:  MOVLB  4
0188:  CLRF   x57
018A:  MOVF   x57,W
018C:  SUBLW  07
018E:  BNC   01AC
....................    {                                                  
....................       output_bit(ssdo,msb);     
0190:  BTFSC  x56.7
0192:  BRA    0198
0194:  BCF    F8D.2
0196:  BRA    019A
0198:  BSF    F8D.2
019A:  BCF    F96.2
....................       output_low(ssck); output_high(ssck); 
019C:  BCF    F96.0
019E:  BCF    F8D.0
01A0:  BCF    F96.0
01A2:  BSF    F8D.0
....................       x= x<<1;          
01A4:  BCF    FD8.0
01A6:  RLCF   x56,F
01A8:  INCF   x57,F
01AA:  BRA    018A
....................    } 
01AC:  MOVLB  0
01AE:  RETURN 0
.................... }  
.................... //xxxxxxxxxxxxxxxxxxxxxxxxxxxxxxxxxxxxxxxxxxxxxxxxxxxxxxxx     
.................... //ham 103: xuat 1 word ra thanh ghi dich 
.................... //xxxxxxxxxxxxxxxxxxxxxxxxxxxxxxxxxxxxxxxxxxxxxxxxxxxxxxxx     
.................... void xuat_1word(unsigned int16 w) 
.................... {   
....................    unsigned int8 b1,b0; 
....................    b1 = w>>8; b0 = w; 
01B0:  MOVFF  443,444
01B4:  MOVFF  442,445
....................    xuat_1byte(b1);     
01B8:  MOVFF  444,456
01BC:  RCALL  0186
....................    xuat_1byte(b0); 
01BE:  MOVFF  445,456
01C2:  RCALL  0186
01C4:  RETURN 0
.................... }    
....................                                 
.................... //xxxxxxxxxxxxxxxxxxxxxxxxxxxxxxxxxxxxxxxxxxxxxxxxxxxxxxxx      
.................... //ham 104: xoa cac module  
.................... //xxxxxxxxxxxxxxxxxxxxxxxxxxxxxxxxxxxxxxxxxxxxxxxxxxxxxxxx   
.................... void xoa_tat_6module()                           
.................... {                                                                                               
....................    xuat_1word(0);                              
01C6:  MOVLB  4
01C8:  CLRF   x43
01CA:  CLRF   x42
01CC:  MOVLB  0
01CE:  RCALL  01B0
....................    xuat_1word(0);  
01D0:  MOVLB  4
01D2:  CLRF   x43
01D4:  CLRF   x42
01D6:  MOVLB  0
01D8:  RCALL  01B0
....................    xuat_1word(0);                              
01DA:  MOVLB  4
01DC:  CLRF   x43
01DE:  CLRF   x42
01E0:  MOVLB  0
01E2:  RCALL  01B0
....................    xuat_1word(0);                                     
01E4:  MOVLB  4
01E6:  CLRF   x43
01E8:  CLRF   x42
01EA:  MOVLB  0
01EC:  RCALL  01B0
....................     
....................    output_high(rck_rlb);    
01EE:  BCF    F95.3
01F0:  BSF    F8C.3
....................    output_low(rck_rlb); 
01F2:  BCF    F95.3
01F4:  BCF    F8C.3
....................     
....................    output_high(rck_32led); 
01F6:  BCF    F95.4
01F8:  BSF    F8C.4
....................    output_low(rck_32led);  
01FA:  BCF    F95.4
01FC:  BCF    F8C.4
....................     
....................    output_high(rck_8l7dq);    
01FE:  BCF    F95.5
0200:  BSF    F8C.5
....................    output_low(rck_8l7dq);    
0202:  BCF    F95.5
0204:  BCF    F8C.5
....................                                   
....................    output_high(rck_mtl);           
0206:  BCF    F95.7
0208:  BSF    F8C.7
....................    output_low(rck_mtl);    
020A:  BCF    F95.7
020C:  BCF    F8C.7
....................                             
....................    output_high(rck_lcd);    
020E:  BCF    F95.2
0210:  BSF    F8C.2
....................    output_low(rck_lcd);       
0212:  BCF    F95.2
0214:  BCF    F8C.2
....................                                                                            
....................    xuat_1word(0xffff);  
0216:  MOVLB  4
0218:  SETF   x43
021A:  SETF   x42
021C:  MOVLB  0
021E:  RCALL  01B0
....................    xuat_1word(0xffff);  
0220:  MOVLB  4
0222:  SETF   x43
0224:  SETF   x42
0226:  MOVLB  0
0228:  RCALL  01B0
....................    output_high(rck_4l7d);        
022A:  BCF    F95.6
022C:  BSF    F8C.6
....................    output_low(rck_4l7d);                                                                       
022E:  BCF    F95.6
0230:  BCF    F8C.6
0232:  GOTO   024E (RETURN)
.................... }              
....................  
.................... //xxxxxxxxxxxxxxxxxxxxxxxxxxxxxxxxxxxxxxxxxxxx     
.................... //ham 101: ham khoi tao cac port va ic chot 
.................... //xxxxxxxxxxxxxxxxxxxxxxxxxxxxxxxxxxxxxxxxxxxx     
.................... void set_up_port()                                   
.................... {                             
....................    set_tris_a(0xff);    set_tris_b(0x3c);                                                    
0236:  MOVLW  FF
0238:  MOVWF  F92
023A:  MOVLW  3C
023C:  MOVWF  F93
....................    set_tris_c(0xf1);    set_tris_e(0x00);                                                
023E:  MOVLW  F1
0240:  MOVWF  F94
0242:  MOVLW  00
0244:  MOVWF  F96
....................    set_tris_d(0x00);     
0246:  MOVWF  F95
....................    output_d(0x00);  
0248:  CLRF   F95
024A:  CLRF   F8C
....................    xoa_tat_6module(); 
024C:  BRA    01C6
....................    port_b_pullups(0xff);           
024E:  BCF    FF1.7
....................    rbdc=0;                
0250:  CLRF   05
0252:  CLRF   04
....................              
....................    setup_adc(adc_clock_div_32);         
0254:  MOVF   FC0,W
0256:  ANDLW  C0
0258:  IORLW  02
025A:  MOVWF  FC0
025C:  BSF    FC0.7
025E:  BSF    FC2.0
....................    setup_adc_ports(an0_to_an2|vss_vdd);  
0260:  MOVF   FC1,W
0262:  ANDLW  C0
0264:  IORLW  0C
0266:  MOVWF  FC1
....................    output_low(g_all);         
0268:  BCF    F95.0
026A:  BCF    F8C.0
026C:  GOTO   0D34 (RETURN)
.................... } 
....................  //xxxxxxxxxxxxxxxxxxxxxxxxxxxxxxxxxxxxxxxxxxxxxxxxxxxxxxxx      
.................... //xuat 1 bit roi tra lai ket qua sau khi dich di 1 bit 
.................... //xxxxxxxxxxxxxxxxxxxxxxxxxxxxxxxxxxxxxxxxxxxxxxxxxxxxxxxx     
.................... unsigned  int8 xuat_1bit(usi8 bx) 
.................... {   
....................    #bit lsb = bx.0                                            
....................    output_bit(ssdo,lsb);     
....................    output_low(ssck); output_high(ssck); 
....................    bx = bx>>1;    
....................    return(bx);   
.................... }    
....................  
....................                                  
....................  
.................... #include <tv_01_4_nutnhan.c>            
.................... //xxxxxxxxxxxxxxxxxxxxxxxxxxxxxxxxxxxxxxxxxxxxxxxxxxxxxxxx 
.................... //NGUYEN DINH PHU SU PHAM KY THUAT TP HCM 
.................... //xxxxxxxxxxxxxxxxxxxxxxxxxxxxxxxxxxxxxxxxxxxxxxxxxxxxxxxx 
....................  
.................... //xxxxxxxxxxxxxxxxxxxxxxxxxxxxxxxxxxxxxxxxxxxxxxxxxxxxxxxx 
.................... //dinh nghia cac trang thai co nhan va khong nhan phim 
.................... //xxxxxxxxxxxxxxxxxxxxxxxxxxxxxxxxxxxxxxxxxxxxxxxxxxxxxxxx  
.................... #define co_nhan      1             
.................... #define khong_nhan   0            
.................... #define c_ktnp       1  //co kiem tra nha phim           
.................... #define k_ktnp       0  //khong kiem tra nha phim  
.................... // #define sole_1       false             
.................... // #define sole_2       true    
....................                                
.................... //xxxxxxxxxxxxxxxxxxxxxxxxxxxxxxxxxxxxxxxxxxxxxxxxxxxxxxxx  
.................... //chuong trinh kiem tra phim bt1 
.................... //xxxxxxxxxxxxxxxxxxxxxxxxxxxxxxxxxxxxxxxxxxxxxxxxxxxxxxxx  
.................... unsigned int16 dl_btn=0;  
.................... //xxxxxxxxxxxxxxxxxxxxxxxxxxxxxxxxxxxxxxxxxxxxxxxxxxxxxxxx 
.................... //phim bt0-cach 1: co chong doi, delay 20ms, cho nha phim 
.................... //dinh nghia them 1 so ten khac      
.................... //xxxxxxxxxxxxxxxxxxxxxxxxxxxxxxxxxxxxxxxxxxxxxxxxxxxxxxxx                        
.................... #define phim_on_c1  phim_bt0_c1     
.................... #define phim_run_c1 phim_bt0_c1  
.................... #define phim_up_c1  phim_bt0_c1        
....................  
.................... int1 phim_bt0_c1(int1 ktnp,usi16 dl)    
.................... {                     
....................    if (!input(bt0))    
....................    {         
....................       delay_ms(20);                                      
....................       if (!input(bt0)) 
....................       { 
....................          if(ktnp) while(!input(bt0)); 
....................          delay_ms(dl); 
....................          return co_nhan;       
....................       }                       
....................       return khong_nhan;    
....................    }          
....................   return khong_nhan;   
.................... }      
.................... //xxxxxxxxxxxxxxxxxxxxxxxxxxxxxxxxxxxxxxxxxxxxxxxxxxxxxxxx 
.................... //phim bt1-cach 1: co chong doi, delay 20ms, cho nha phim 
.................... //dinh nghia them 1 so ten khac       
.................... //xxxxxxxxxxxxxxxxxxxxxxxxxxxxxxxxxxxxxxxxxxxxxxxxxxxxxxxx   
.................... #define phim_off_c1   phim_bt1_c1    
.................... #define phim_mode_c1  phim_bt1_c1  
.................... #define phim_stop_c1  phim_bt1_c1  
.................... #define phim_clr_c1   phim_bt1_c1 
.................... int1 phim_bt1_c1(int1 ktnp,usi16 dl)                                                
.................... { 
....................    if(!input(bt1))    
....................    {                        
....................       delay_ms(20); 
....................       if(!input(bt1)) 
....................       { 
....................          if(ktnp) while(!input(bt1));     
....................          delay_ms(dl); 
....................          return co_nhan; 
....................       }  
....................       return khong_nhan; 
....................    } 
....................    return khong_nhan;   
.................... }        
....................       
.................... //xxxxxxxxxxxxxxxxxxxxxxxxxxxxxxxxxxxxxxxxxxxxxxxxxxxxxxxx 
.................... //phim bt2-cach 1: co chong doi, delay 20ms, cho nha phim 
.................... //dinh nghia them 1 so ten khac       
.................... //xxxxxxxxxxxxxxxxxxxxxxxxxxxxxxxxxxxxxxxxxxxxxxxxxxxxxxxx   
.................... #define phim_inv_c1 phim_bt2_c1    
.................... #define phim_dw_c1  phim_bt2_c1                   
....................  
.................... int1 phim_bt2_c1(int1 ktnp,usi16 dl)       
.................... { 
....................    if(!input(bt2))    
....................    {         
....................       delay_ms(20);                 
....................       if(!input(bt2)) 
....................       { 
....................          if(ktnp) while(!input(bt2));     
....................          delay_ms(dl); 
....................          return co_nhan; 
....................       }                                      
....................       return khong_nhan;  
....................    } 
....................    return khong_nhan;   
.................... }       
.................... //xxxxxxxxxxxxxxxxxxxxxxxxxxxxxxxxxxxxxxxxxxxxxxxxxxxxxxxx 
.................... //phim bt3-cach 1: co chong doi, delay 20ms, cho nha phim 
.................... //dinh nghia them 1 so ten khac       
.................... //xxxxxxxxxxxxxxxxxxxxxxxxxxxxxxxxxxxxxxxxxxxxxxxxxxxxxxxx      
....................  
.................... #define phim_ud_c1    phim_bt3_c1 
....................  
....................  
.................... int1 phim_bt3_c1(int1 ktnp,usi16 dl)       
.................... {                        
....................    if(!input(bt3))    
....................    {                                         
....................       delay_ms(20);                        
....................       if(!input(bt3)) 
....................       {                       
....................          if(ktnp) while(!input(bt3));     
....................          delay_ms(dl); 
....................          return co_nhan; 
....................       }  
....................       return khong_nhan;    
....................       }                        
....................    return khong_nhan;   
.................... }   
....................        
.................... //xxxxxxxxxxxxxxxxxxxxxxxxxxxxxxxxxxxxxxxxxxxxxxxxxxxxxxxx  
.................... //xxxxxxxxxxxxxxxxxxxxxxxxxxxxxxxxxxxxxxxxxxxxxxxxxxxxxxxx  
.................... //cac ham con cua cac phim nhan don theo cach 2 
.................... //xxxxxxxxxxxxxxxxxxxxxxxxxxxxxxxxxxxxxxxxxxxxxxxxxxxxxxxx  
.................... //xxxxxxxxxxxxxxxxxxxxxxxxxxxxxxxxxxxxxxxxxxxxxxxxxxxxxxxx     
....................  
.................... //xxxxxxxxxxxxxxxxxxxxxxxxxxxxxxxxxxxxxxxxxxxxxxxxxxxxxxxx   
.................... //phim bt0-cach 2: nhan so lan thuc hien la bien dl 
.................... //kiem tra neu co nhan thi tang bien dem dl_btn,delay 1ms.    
.................... //Neu bien dl_btn = dl thi reset dl_btn = 0, 
.................... //xem nhu co nhan va ket thuc.  
.................... //con lai thi xem nhu chua nhan hoac chua du thoi gian nhan 
.................... //moi chu ky thuc hien lon nhat la 1ms - khong cho nha phim  
.................... //dinh nghia them 1 so ten khac   
.................... //xxxxxxxxxxxxxxxxxxxxxxxxxxxxxxxxxxxxxxxxxxxxxxxxxxxxxxxx     
.................... #define phim_on_c2  phim_bt0_c2                     
.................... #define phim_run_c2 phim_bt0_c2       
.................... #define phim_up_c2  phim_bt0_c2   
....................  
.................... int1 phim_bt0_c2(usi16 dl)   
.................... {                       
....................    if(!input(bt0))                        
*
0672:  BSF    F93.5
0674:  BTFSC  F81.5
0676:  BRA    06B6
....................    {    
....................       dl_btn++;   delay_us(500);                
0678:  INCF   06,F
067A:  BTFSC  FD8.2
067C:  INCF   07,F
067E:  MOVLW  02
0680:  MOVLB  4
0682:  MOVWF  x44
0684:  MOVLW  F9
0686:  MOVWF  x45
0688:  MOVLB  0
068A:  RCALL  0652
068C:  MOVLB  4
068E:  DECFSZ x44,F
0690:  BRA    0684
....................       if(dl_btn>=dl)  
0692:  MOVF   x43,W
0694:  SUBWF  07,W
0696:  BNC   06AC
0698:  BNZ   06A0
069A:  MOVF   x42,W
069C:  SUBWF  06,W
069E:  BNC   06AC
....................       {   
....................          dl_btn=0; 
06A0:  CLRF   07
06A2:  CLRF   06
....................          return co_nhan; 
06A4:  MOVLW  01
06A6:  MOVWF  01
06A8:  BRA    06BC
....................       }      
06AA:  BRA    06B2
....................       else  return khong_nhan;  
06AC:  MOVLW  00
06AE:  MOVWF  01
06B0:  BRA    06BC
....................    } 
06B2:  BRA    06BC
06B4:  MOVLB  0
....................    else  return khong_nhan;     
06B6:  MOVLW  00
06B8:  MOVWF  01
06BA:  MOVLB  4
06BC:  MOVLB  0
06BE:  GOTO   0732 (RETURN)
.................... }  
....................      
.................... //xxxxxxxxxxxxxxxxxxxxxxxxxxxxxxxxxxxxxxxxxxxxxxxxxxxxxxxx 
.................... //ham chong doi cach 2 cho phim bt1 
.................... //xxxxxxxxxxxxxxxxxxxxxxxxxxxxxxxxxxxxxxxxxxxxxxxxxxxxxxxx       
.................... #define phim_off_c2   phim_bt1_c2    
.................... #define phim_stop_c2  phim_bt1_c2   
.................... #define phim_mode_c2  phim_bt1_c2 
.................... #define phim_clr_c2   phim_bt3_c2 
....................  
.................... int1 phim_bt1_c2(usi16 dl) 
.................... {                       
....................    if(!input(bt1))    
*
0762:  BSF    F93.4
0764:  BTFSC  F81.4
0766:  BRA    07A6
....................    {            
....................       dl_btn++;  delay_us(500);   
0768:  INCF   06,F
076A:  BTFSC  FD8.2
076C:  INCF   07,F
076E:  MOVLW  02
0770:  MOVLB  4
0772:  MOVWF  x44
0774:  MOVLW  F9
0776:  MOVWF  x45
0778:  MOVLB  0
077A:  RCALL  0652
077C:  MOVLB  4
077E:  DECFSZ x44,F
0780:  BRA    0774
....................       if(dl_btn >= dl)     
0782:  MOVF   x43,W
0784:  SUBWF  07,W
0786:  BNC   079C
0788:  BNZ   0790
078A:  MOVF   x42,W
078C:  SUBWF  06,W
078E:  BNC   079C
....................       {   
....................          dl_btn =0; 
0790:  CLRF   07
0792:  CLRF   06
....................          return co_nhan; 
0794:  MOVLW  01
0796:  MOVWF  01
0798:  BRA    07AC
....................       }      
079A:  BRA    07A2
....................       else return khong_nhan;  
079C:  MOVLW  00
079E:  MOVWF  01
07A0:  BRA    07AC
....................    } 
07A2:  BRA    07AC
07A4:  MOVLB  0
....................    else return khong_nhan;     
07A6:  MOVLW  00
07A8:  MOVWF  01
07AA:  MOVLB  4
07AC:  MOVLB  0
07AE:  GOTO   07DA (RETURN)
.................... }      
....................  
.................... //xxxxxxxxxxxxxxxxxxxxxxxxxxxxxxxxxxxxxxxxxxxxxxxxxxxxxxxx 
.................... //ham chong doi cach 2 cho phim bt2 
.................... //xxxxxxxxxxxxxxxxxxxxxxxxxxxxxxxxxxxxxxxxxxxxxxxxxxxxxxxx 
.................... #define phim_inv_c2   phim_bt2_c2   
.................... #define phim_dw_c2    phim_bt2_c2   
....................  
.................... int1 phim_bt2_c2(usi16 dl) 
.................... {                       
....................    if(!input(bt2))    
....................    {                                   
....................       dl_btn++;  delay_us(500);   
....................       if(dl_btn >= dl)  
....................       {   
....................          dl_btn =0; 
....................          return co_nhan;    
....................       }      
....................       else return khong_nhan;  
....................    } 
....................    else return khong_nhan;     
.................... }                                        
.................... //xxxxxxxxxxxxxxxxxxxxxxxxxxxxxxxxxxxxxxxxxxxxxxxxxxxxxxxx 
.................... //ham chong doi cach 1 cho phim bt3 
.................... //xxxxxxxxxxxxxxxxxxxxxxxxxxxxxxxxxxxxxxxxxxxxxxxxxxxxxxxx         
.................... //#define phim_mode_c2  phim_bt3_c2   
.................... #define phim_ud_c2    phim_bt3_c2   
....................                           
.................... int1 phim_bt3_c2(usi16 dl)  
.................... {                       
....................    if(!input(bt3))     
*
07FC:  BSF    F93.2
07FE:  BTFSC  F81.2
0800:  BRA    0840
....................    {                          
....................       dl_btn++;    delay_us(500);                                                 
0802:  INCF   06,F
0804:  BTFSC  FD8.2
0806:  INCF   07,F
0808:  MOVLW  02
080A:  MOVLB  4
080C:  MOVWF  x44
080E:  MOVLW  F9
0810:  MOVWF  x45
0812:  MOVLB  0
0814:  RCALL  0652
0816:  MOVLB  4
0818:  DECFSZ x44,F
081A:  BRA    080E
....................       if(dl_btn >= dl)  
081C:  MOVF   x43,W
081E:  SUBWF  07,W
0820:  BNC   0836
0822:  BNZ   082A
0824:  MOVF   x42,W
0826:  SUBWF  06,W
0828:  BNC   0836
....................       {   
....................          dl_btn =0;                                  
082A:  CLRF   07
082C:  CLRF   06
....................          return co_nhan;  
082E:  MOVLW  01
0830:  MOVWF  01
0832:  BRA    0846
....................       }      
0834:  BRA    083C
....................       else return khong_nhan;  
0836:  MOVLW  00
0838:  MOVWF  01
083A:  BRA    0846
....................    } 
083C:  BRA    0846
083E:  MOVLB  0
....................    else return khong_nhan;     
0840:  MOVLW  00
0842:  MOVWF  01
0844:  MOVLB  4
0846:  MOVLB  0
0848:  GOTO   0890 (RETURN)
.................... }            
....................  
.................... #include <tv_02_matran_phim4x4_138.c>     
.................... //xxxxxxxxxxxxxxxxxxxxxxxxxxxxxxxxxxxxxxxxxxxxxxxxxxxxxxxx 
.................... //NGUYEN DINH PHU SU PHAM KY THUAT TP HCM 
.................... //xxxxxxxxxxxxxxxxxxxxxxxxxxxxxxxxxxxxxxxxxxxxxxxxxxxxxxxx 
....................  
.................... const unsigned char maquet[4]= {0x3f,0x7f,0xbf,0xff}; 
.................... //xxxxxxxxxxxxxxxxxxxxxxxxxxxxxxxxxxxxxxxxxxxxxxxxxxxxxxxx 
.................... //ham quet phim ma tran 4x4                  
.................... //xxxxxxxxxxxxxxxxxxxxxxxxxxxxxxxxxxxxxxxxxxxxxxxxxxxxxxxx 
.................... unsigned int key_nhan()                
.................... {      
....................    unsigned int8 maphim,hang,cot;       
....................    maphim=hang=0xff; 
....................    for(cot=0;cot<4;cot++)                     
....................    {    
....................       output_b(maquet[cot]); 
....................       if     (!input(pin_b2)) {hang=3; break;} 
....................       else if(!input(pin_b3)) {hang=2; break;}        
....................       else if(!input(pin_b4)) {hang=1; break;} 
....................       else if(!input(pin_b5)) {hang=0; break;} 
....................    }           
....................    if(hang!=0xff) maphim = cot*4 + hang; 
....................    return(maphim); 
.................... }      
.................... //xxxxxxxxxxxxxxxxxxxxxxxxxxxxxxxxxxxxxxxxxxxxxxxxxxxxxxxx 
.................... //ham quet ma tran phim va chong doi tich cuc khi nhan phim 
.................... //cach 1              
.................... //xxxxxxxxxxxxxxxxxxxxxxxxxxxxxxxxxxxxxxxxxxxxxxxxxxxxxxxx                         
.................... unsigned int key_4x4_dw() 
.................... {      
....................    unsigned int8 mp1, mp2;   
....................    mp1=key_nhan();       
....................    if(mp1!=0xff)                 
....................    {   
....................       delay_ms(20);                                            
....................       mp1=key_nhan(); 
....................       do               
....................       {          
....................          delay_ms(5);  
....................          mp2=key_nhan();      
....................       }                     
....................       while(mp2==mp1);  
....................    }              
....................    return(mp1); 
.................... }  
.................... //xxxxxxxxxxxxxxxxxxxxxxxxxxxxxxxxxxxxxxxxxxxxxxxxxxxxxxxx 
.................... //ham quet ma tran phim va chong doi tich cuc khi nhan phim 
.................... //cach 2 
.................... //xxxxxxxxxxxxxxxxxxxxxxxxxxxxxxxxxxxxxxxxxxxxxxxxxxxxxxxx          
.................... unsigned int key_4x4_dw_c2(usi8 dl) 
.................... {      
....................    unsigned int8 mp;   
....................    mp=key_nhan();          
....................    if(mp!=0xff)                                    
....................    {   
....................       dl_btn++; delay_ms(1);         
....................       if(dl_btn>=dl)  
....................       {   
....................          dl_btn=0;  
....................          return mp; 
....................       }                
....................       else  return 0xff;  
....................    } 
....................    else  return 0xff;      
.................... }  
.................... //xxxxxxxxxxxxxxxxxxxxxxxxxxxxxxxxxxxxxxxxxxxxxxxxxxxxxxxx 
.................... //ham quet ma tran phim va chong doi tich cuc khi nha phim 
.................... //xxxxxxxxxxxxxxxxxxxxxxxxxxxxxxxxxxxxxxxxxxxxxxxxxxxxxxxx 
.................... unsigned int key_4x4_up() 
.................... {                     
....................    unsigned int8 mp1,mp2;   
....................    mp1=key_nhan(); 
....................    if(mp1!=0xff)    
....................    {                        
....................       if(mp2==0xff)              
....................       {                                                         
....................          delay_ms(20);   //chong doi 
....................          mp1=key_nhan(); 
....................          if(mp1!=0xff)   mp2=mp1; 
....................          return(mp1);    //phim moi                   
....................       }   
....................       else                
....................       {                                                                                                              
....................          do 
....................          {                                                     
....................             mp2=key_nhan(); 
....................             delay_ms(5);  
....................          } while(mp2!=0xff);                                                      
....................          return(mp2);     //thoat khi nha phim           
....................       }                 
....................    }            
....................    else                   
....................    { 
....................       mp2=mp1; 
....................       return(mp1);     //thoat vi khong nhan   
....................    }       
.................... } 
....................                                         
....................  
.................... #include <math.h> 
.................... //////////////////////////////////////////////////////////////////////////// 
.................... ////        (C) Copyright 1996,2011 Custom Computer Services            //// 
.................... //// This source code may only be used by licensed users of the CCS C   //// 
.................... //// compiler.  This source code may only be distributed to other       //// 
.................... //// licensed users of the CCS C compiler.  No other use, reproduction  //// 
.................... //// or distribution is permitted without written permission.           //// 
.................... //// Derivative programs created using this software in object code     //// 
.................... //// form are not restricted in any way.                                //// 
.................... //////////////////////////////////////////////////////////////////////////// 
.................... ////                                                                    //// 
.................... //// History:                                                           //// 
.................... ////  * 9/20/2001 :  Improvments are made to sin/cos code.              //// 
.................... ////                 The code now is small, much faster,                //// 
.................... ////                 and more accurate.                                 //// 
.................... ////  * 2/21/2007 :  Compiler handles & operator differently and does   //// 
.................... ////                 not return generic (int8 *) so type cast is done   //// 
.................... ////  * 6/19/2010 :  Divisions by constants converted to multiplication //// 
.................... ////                 by its inverse to improve computation speed        //// 
.................... ////  * 1/21/2011 :  Constants used for double precision math updated   //// 
.................... ////                 Updated routines include 64 bit versions of cos,   //// 
.................... ////                 asin,atan,exp,log and dependant functions          //// 
.................... ////  * 1/31/2011 :  Optimized current 32-bit float routines for cos    //// 
.................... ////                 and log function                                   //// 
.................... ////  * 6/13/2011 :  Fixed PCD overload CEIL_FLOOR functions for values //// 
.................... ////                 greater then 10000000 and less then -10000000      //// 
.................... ////                                                                    //// 
.................... //////////////////////////////////////////////////////////////////////////// 
....................  
.................... #ifndef MATH_H 
.................... #define MATH_H 
....................  
.................... #ifdef PI 
.................... #undef  PI 
.................... #endif 
.................... #define PI     3.1415926535897932 
....................  
....................  
.................... #define SQRT2  1.4142135623730950 
....................  
.................... //float const ps[4] = {5.9304945, 21.125224, 8.9403076, 0.29730279}; 
.................... //float const qs[4] = {1.0000000, 15.035723, 17.764134, 2.4934718}; 
....................  
.................... ///////////////////////////// Round Functions ////////////////////////////// 
....................  
.................... float32 CEIL_FLOOR(float32 x, unsigned int8 n) 
.................... { 
....................    float32 y, res; 
....................    unsigned int16 l; 
....................    int1 s; 
....................  
....................    s = 0; 
....................    y = x; 
....................  
....................    if (x < 0) 
....................    { 
....................       s = 1; 
....................       y = -y; 
....................    } 
....................  
....................    if (y <= 32768.0) 
....................       res = (float32)(unsigned int16)y; 
....................  
....................  else if (y < 10000000.0) 
....................    {  
....................       l = (unsigned int16)(y*0.000030517578125); 
....................       y = 32768.0*(y*0.000030517578125 - (float32)l); 
....................       res = 32768.0*(float32)l; 
....................       res += (float32)(unsigned int16)y; 
....................    } 
....................  
....................  else 
....................   res = y; 
....................  
....................  y = y - (float32)(unsigned int16)y; 
....................  
....................  if (s) 
....................   res = -res; 
....................  
....................  if (y != 0) 
....................  { 
....................   if (s == 1 && n == 0) 
....................    res -= 1.0; 
....................  
....................   if (s == 0 && n == 1) 
....................    res += 1.0; 
....................  } 
....................  if (x == 0) 
....................     res = 0; 
....................  
....................  return (res); 
.................... } 
....................  
.................... // Overloaded Functions to take care for new Data types in PCD 
.................... // Overloaded function CEIL_FLOOR() for data type - Float48 
.................... #if defined(__PCD__) 
.................... float48 CEIL_FLOOR(float48 x, unsigned int8 n) 
.................... { 
....................    float48 y, res; 
....................    unsigned int32 l; 
....................    int1 s; 
....................  
....................    s = 0; 
....................    y = x; 
....................  
....................    if (x < 0) 
....................    { 
....................       s = 1; 
....................       y = -y; 
....................    } 
....................  
....................    if (y <= 32768.0) 
....................       res = (float48)(unsigned int16)y; 
....................  
....................    else if (y < 549755813888.0) 
....................    { 
....................       l = (unsigned int32)(y*0.000030517578125); 
....................       y = 32768.0*(y*0.000030517578125 - (float48)l); 
....................       res = 32768.0*(float48)l; 
....................       res += (float48)(unsigned int16)y; 
....................    } 
....................    else 
....................    {   
....................       res = y; 
....................       y = 0.0; 
....................    } 
....................     
....................    if(y != 0) 
....................       y = y - (float48)(unsigned int16)y; 
....................  
....................    if (s) 
....................       res = -res; 
....................  
....................    if (y != 0) 
....................    { 
....................       if (s == 1 && n == 0) 
....................          res -= 1.0; 
....................  
....................       if (s == 0 && n == 1) 
....................          res += 1.0; 
....................    } 
....................    if (x == 0) 
....................       res = 0; 
....................  
....................    return (res); 
.................... } 
....................  
....................  
.................... // Overloaded function CEIL_FLOOR() for data type - Float64 
.................... float64 CEIL_FLOOR(float64 x, unsigned int8 n) 
.................... { 
....................    float64 y, res; 
....................    int64 l; 
....................    int1 s; 
....................  
....................    s = 0; 
....................    y = x; 
....................  
....................    if (x < 0) 
....................    { 
....................       s = 1; 
....................       y = -y; 
....................    } 
....................  
....................    if (y <= 32768.0) 
....................       res = (float64)(unsigned int16)y; 
....................    else if (y < 4503599627370496.0) 
....................    { 
....................       l = (int64)(y*0.000030517578125); 
....................       y = 32768.0*(y*0.000030517578125 - (float64)l); 
....................       res = 32768.0*(float64)l; 
....................       res += (float64)(unsigned int16)y; 
....................    } 
....................    else 
....................    { 
....................       res = y; 
....................       y = 0.0; 
....................    } 
....................     
....................    if(y != 0) 
....................       y = y - (float64)(unsigned int16)y; 
....................  
....................    if (s) 
....................       res = -res; 
....................  
....................    if (y != 0) 
....................    { 
....................       if (s == 1 && n == 0) 
....................          res -= 1.0; 
....................  
....................       if (s == 0 && n == 1) 
....................          res += 1.0; 
....................    } 
....................     
....................    if (x == 0) 
....................       res = 0; 
....................  
....................    return (res); 
.................... } 
.................... #endif 
....................  
.................... //////////////////////////////////////////////////////////////////////////// 
.................... //   float floor(float x) 
.................... //////////////////////////////////////////////////////////////////////////// 
.................... // Description : rounds down the number x. 
.................... // Date : N/A 
.................... // 
.................... float32 floor(float32 x) 
.................... { 
....................    return CEIL_FLOOR(x,0); 
.................... } 
.................... // Following 2 functions are overloaded functions of floor() for PCD 
.................... // Overloaded function floor() for data type - Float48 
.................... #if defined(__PCD__) 
.................... float48 floor(float48 x) 
.................... { 
....................    return CEIL_FLOOR(x, 0); 
.................... } 
....................  
.................... // Overloaded function floor() for data type - Float64 
.................... float64 floor(float64 x) 
.................... { 
....................    return CEIL_FLOOR(x, 0); 
.................... } 
.................... #endif 
....................  
....................  
.................... //////////////////////////////////////////////////////////////////////////// 
.................... //   float ceil(float x) 
.................... //////////////////////////////////////////////////////////////////////////// 
.................... // Description : rounds up the number x. 
.................... // Date : N/A 
.................... // 
.................... float32 ceil(float32 x) 
.................... { 
....................    return CEIL_FLOOR(x, 1); 
.................... } 
.................... // Following 2 functions are overloaded functions of ceil() for PCD 
.................... // Overloaded function ceil() for data type - Float48 
.................... #if defined(__PCD__) 
.................... float48 ceil(float48 x) 
.................... { 
....................    return CEIL_FLOOR(x, 1); 
.................... } 
....................  
.................... // Overloaded function ceil() for data type - Float64 
.................... float64 ceil(float64 x) 
.................... { 
....................    return CEIL_FLOOR(x, 1); 
.................... } 
.................... #endif 
....................  
....................  //////////////////////////////////////////////////////////////////////////// 
.................... //   float fabs(float x) 
.................... //////////////////////////////////////////////////////////////////////////// 
.................... // Description : Computes the absolute value of floating point number x 
.................... // Returns : returns the absolute value of x 
.................... // Date : N/A 
.................... // 
.................... #define fabs abs 
....................  
.................... //////////////////////////////////////////////////////////////////////////// 
.................... //   float fmod(float x) 
.................... //////////////////////////////////////////////////////////////////////////// 
.................... // Description : Computes the floating point remainder of x/y 
.................... // Returns : returns the value of x= i*y, for some integer i such that, if y 
.................... // is non zero, the result has the same isgn of x na dmagnitude less than the 
.................... // magnitude of y. If y is zero then a domain error occurs. 
.................... // Date : N/A 
.................... // 
....................  
.................... float fmod(float32 x,float32 y) 
.................... { 
....................    float32 i; 
....................    if (y!=0.0) 
....................    { 
....................       i=(x/y < 0.0)? ceil(x/y): floor(x/y); 
....................       return(x-(i*y)); 
....................    } 
....................    else 
....................    { 
....................    #ifdef _ERRNO 
....................    { 
....................       errno=EDOM; 
....................    } 
....................    #endif 
....................    } 
.................... } 
.................... //Overloaded function for fmod() for PCD 
.................... // Overloaded function fmod() for data type - Float48 
.................... #if defined(__PCD__) 
.................... float48 fmod(float48 x,float48 y) 
.................... { 
....................    float48 i; 
....................    if (y!=0.0) 
....................    { 
....................       i=(x/y < 0.0)? ceil(x/y): floor(x/y); 
....................       return(x-(i*y)); 
....................    } 
....................    else 
....................    { 
....................    #ifdef _ERRNO 
....................    { 
....................       errno=EDOM; 
....................    } 
....................    #endif 
....................    } 
.................... } 
.................... // Overloaded function fmod() for data type - Float64 
.................... float64 fmod(float64 x,float64 y) 
.................... { 
....................    float64 i; 
....................    if (y!=0.0) 
....................    { 
....................       i=(x/y < 0.0)? ceil(x/y): floor(x/y); 
....................       return(x-(i*y)); 
....................    } 
....................    else 
....................    { 
....................    #ifdef _ERRNO 
....................    { 
....................       errno=EDOM; 
....................    } 
....................    #endif 
....................    } 
.................... } 
.................... #endif 
.................... //////////////////// Exponential and logarithmic functions //////////////////// 
.................... //////////////////////////////////////////////////////////////////////////// 
.................... //   float exp(float x) 
.................... //////////////////////////////////////////////////////////////////////////// 
.................... // Description : returns the value (e^x) 
.................... // Date : N/A 
.................... // 
.................... #define LN2 0.6931471805599453 
.................... #define LN2_INV 1.4426950408889634073 
....................  
.................... float const pe[6] = {0.000207455774, 0.00127100575, 0.00965065093, 
....................                      0.0554965651,  0.240227138,  0.693147172}; 
....................  
....................  
.................... float32 exp(float32 x) 
.................... { 
....................    float32 y, res, r; 
....................    #if defined(__PCD__) 
....................    int8 data1; 
....................    #endif 
....................    signed int8 n; 
....................    int1 s; 
....................    #ifdef _ERRNO 
....................    if(x > 88.722838) 
....................    { 
....................       errno=ERANGE; 
....................       return(0); 
....................    } 
....................    #endif 
....................    n = (signed int16)(x*LN2_INV); 
....................    s = 0; 
....................    y = x; 
....................  
....................    if (x < 0) 
....................    { 
....................       s = 1; 
....................       n = -n; 
....................       y = -y; 
....................    } 
....................  
....................    res = 0.0; 
.................... #if !defined(__PCD__) 
....................    *((unsigned int8 *)(&res)) = n + 0x7F; 
.................... #endif 
....................  
.................... #if defined(__PCD__)  // Takes care of IEEE format for PCD 
....................    data1 = n+0x7F; 
....................    if(bit_test(data1,0)) 
....................    bit_set(*(((unsigned int8 *)(&res)+2)),7); 
....................    rotate_right(&data1,1); 
....................    bit_clear(data1,7); 
....................    *(((unsigned int8 *)(&res)+3)) = data1; 
.................... #endif 
....................  
....................    y = y*LN2_INV - (float32)n; 
....................  
....................    r = pe[0]*y + pe[1]; 
....................    r = r*y + pe[2]; 
....................    r = r*y + pe[3]; 
....................    r = r*y + pe[4]; 
....................    r = r*y + pe[5]; 
....................  
....................    res = res*(1.0 + y*r); 
....................  
....................    if (s) 
....................       res = 1.0/res; 
....................    return(res); 
.................... } 
....................  
....................  
.................... //Overloaded function for exp() for PCD 
.................... // Overloaded function exp() for data type - Float48 
.................... #if defined(__PCD__) 
.................... float48 exp(float48 x) 
.................... { 
....................    float48 y, res, r; 
....................    int8 data1; 
....................    signed int8 n; 
....................    int1 s; 
....................    #ifdef _ERRNO 
....................    if(x > 88.722838) 
....................    { 
....................       errno=ERANGE; 
....................       return(0); 
....................    } 
....................    #endif 
....................    n = (signed int16)(x*LN2_INV); 
....................    s = 0; 
....................    y = x; 
....................  
....................    if (x < 0) 
....................    { 
....................       s = 1; 
....................       n = -n; 
....................       y = -y; 
....................    } 
....................  
....................    res = 0.0; 
....................  
....................    data1 = n+0x7F; 
....................    if(bit_test(data1,0)) 
....................    bit_set(*(((unsigned int8 *)(&res)+4)),7); 
....................    rotate_right(&data1,1); 
....................    bit_clear(data1,7); 
....................    *(((unsigned int8 *)(&res)+5)) = data1; 
....................  
....................    y = y*LN2_INV - (float48)n; 
....................  
....................    r = pe[0]*y + pe[1]; 
....................    r = r*y + pe[2]; 
....................    r = r*y + pe[3]; 
....................    r = r*y + pe[4]; 
....................    r = r*y + pe[5]; 
....................  
....................    res = res*(1.0 + y*r); 
....................  
....................    if (s) 
....................       res = 1.0/res; 
....................    return(res); 
.................... } 
....................  
.................... // Overloaded function exp() for data type - Float64 
.................... float64 const pe_64[12] ={9.30741400474913e-011,-4.28655416283316e-011, 
....................                           8.71486547014137e-009,9.84458531538385e-008, 
....................                           1.32588296983536e-006,1.52489283823016e-005, 
....................                           0.000154037598423921,0.00133335487036216, 
....................                           0.00961812936407326,0.0555041086222122, 
....................                           0.240226506962827,0.693147180559823}; 
....................  
.................... float64 exp(float64 x) 
.................... { 
....................    float64 y, res, r; 
....................    unsigned int16 data1, data2; 
....................    unsigned int16 *p; 
....................    signed int16 n; 
....................    int1 s; 
....................    #ifdef _ERRNO 
....................    if(x > 709.7827128) 
....................    { 
....................       errno=ERANGE; 
....................       return(0); 
....................    } 
....................    #endif 
....................    y = x*LN2_INV; 
....................    n = (signed int16)y; 
....................    s = 0; 
....................    y = x; 
....................  
....................    if (x < 0) 
....................    { 
....................       s = 1; 
....................       n = -n; 
....................       y = -y; 
....................    } 
....................  
....................    res = 0.0; 
....................  
.................... #if !defined(__PCD__) 
....................    *((unsigned int16 *)(&res)) = n + 0x7F; 
.................... #endif 
....................    p= (((unsigned int16 *)(&res))+3); 
....................    data1 = *p; 
....................    data2 = *p;    
....................    data1 = n + 0x3FF; 
....................    data1 = data1 <<4; 
....................    if(bit_test(data2,15)) 
....................    bit_set(data1,15); 
....................    data2 = data2 & 0x000F; 
....................    data1 ^= data2; 
....................  
....................    *(((unsigned int16 *)(&res)+3)) = data1; 
....................  
....................  
....................    y = y*LN2_INV - (float64)n; 
....................  
....................    r = pe_64[0]*y + pe_64[1]; 
....................    r = r*y + pe_64[2]; 
....................    r = r*y + pe_64[3]; 
....................    r = r*y + pe_64[4]; 
....................    r = r*y + pe_64[5]; 
....................    r = r*y + pe_64[6]; 
....................    r = r*y + pe_64[7]; 
....................    r = r*y + pe_64[8]; 
....................    r = r*y + pe_64[9]; 
....................    r = r*y + pe_64[10]; 
....................    r = r*y + pe_64[11]; 
....................     
....................    res = res*(1.0 + y*r); 
....................  
....................    if (s) 
....................       res = 1.0/res; 
....................    return(res); 
.................... } 
.................... #ENDIF 
....................  
....................  
.................... /************************************************************/ 
....................  
.................... float32 const pl[4] = {-1.080310025160955, 1.999999947089217}; 
.................... float32 const ql[4] = {0.091284365719509, -0.873491916557671}; 
....................  
.................... //////////////////////////////////////////////////////////////////////////// 
.................... //   float log(float x) 
.................... //////////////////////////////////////////////////////////////////////////// 
.................... // Description : returns the the natural log of x 
.................... // Date : N/A 
.................... // 
.................... float32 log(float32 x) 
.................... { 
....................    float32 y, res, r, y2; 
....................    #if defined(__PCD__) 
....................    unsigned int8  data1,data2; 
....................    #endif 
....................    signed int8 n; 
....................    #ifdef _ERRNO 
....................    if(x <0) 
....................    { 
....................       errno=EDOM; 
....................    } 
....................    if(x ==0) 
....................    { 
....................       errno=ERANGE; 
....................       return(0); 
....................    } 
....................    #endif 
....................    y = x; 
....................  
....................    if (y != 1.0) 
....................    { 
.................... #if !defined(__PCD__) 
....................     *((unsigned int8 *)(&y)) = 0x7E;  
.................... #endif 
....................  
.................... #if defined(__PCD__) // Takes care of IEEE format 
....................    data2 = *(((unsigned int8 *)(&y))+3); 
....................    *(((unsigned int8 *)(&y))+3) = 0x3F; 
....................    data1 = *(((unsigned int8 *)(&y))+2); 
....................    bit_clear(data1,7); 
....................    *(((unsigned int8 *)(&y))+2) = data1; 
....................    if(bit_test(data2,7)) 
....................      bit_set(*(((unsigned int8 *)(&y))+3),7); 
.................... #endif 
....................  
....................       y = (y - 1.0)/(y + 1.0); 
....................  
....................       y2=y*y; 
....................  
....................       res = pl[0]*y2 + pl[1]; 
....................  
....................       r = ql[0]*y2 + ql[1]; 
....................       r = r*y2 + 1.0; 
....................  
....................       res = y*res/r; 
.................... #if !defined(__PCD__) 
....................       n = *((unsigned int8 *)(&x)) - 0x7E; 
.................... #endif 
.................... #if defined(__PCD__)  
....................     data1 = *(((unsigned int8 *)(&x)+3)); 
....................     rotate_left(&data1,1); 
....................     data2 = *(((unsigned int8 *)(&x)+2)); 
....................     if(bit_test (data2,7)) 
....................       bit_set(data1,0); 
....................     n = data1 - 0x7E; 
.................... #endif 
....................  
....................       if (n<0)  
....................          r = -(float32)-n; 
....................       else 
....................          r = (float32)n; 
....................  
....................       res += r*LN2; 
....................    } 
....................  
....................    else 
....................       res = 0.0; 
....................  
....................    return(res); 
.................... } 
....................  
.................... //Overloaded function for log() for PCD 
.................... // Overloaded function log() for data type - Float48 
.................... #if defined(__PCD__) 
.................... // Overloaded function log() for data type - float64 
.................... float64 const pl_64[4] = {-0.145694052150681, 1.365485300000370, 
....................                           -3.120535668274329, 2.000000000000000}; 
....................  
.................... float64 const ql_64[4] = {0.006047500465908, -0.208298281937234, 
....................                           1.113943039156721, -1.893601167470470}; 
....................  
.................... float48 log(float48 x) 
.................... { 
....................    float48 y, res, r, y2; 
....................    unsigned int8  data1,data2; 
....................    signed int8 n; 
.................... #ifdef _ERRNO 
....................    if(x <0) 
....................    { 
....................       errno=EDOM; 
....................    } 
....................    if(x ==0) 
....................    { 
....................       errno=ERANGE; 
....................       return(0); 
....................    } 
.................... #endif 
....................    y = x; 
....................  
....................    if (y != 1.0) 
....................    { 
....................  
.................... #if !defined(__PCD__) 
....................       *((unsigned int8 *)(&y)) = 0x7E;  
.................... #endif 
....................       data2 = *(((unsigned int8 *)(&y))+5); 
....................       *(((unsigned int8 *)(&y))+5) = 0x3F; 
....................       data1 = *(((unsigned int8 *)(&y))+4); 
....................       bit_clear(data1,7); 
....................       *(((unsigned int8 *)(&y))+4) = data1; 
....................  
....................       if(bit_test(data2,7)) 
....................       bit_set(*(((unsigned int8 *)(&y))+4),7); 
....................       y = (y - 1.0)/(y + 1.0); 
....................  
....................       y2=y*y; 
....................  
....................       res = pl_64[0]*y2 + pl_64[1]; 
....................       res = res*y2 + pl_64[2]; 
....................       res = res*y2 + pl_64[3]; 
....................  
....................       r = ql_64[0]*y2 + ql_64[1]; 
....................       r = r*y2 + ql_64[2]; 
....................       r = r*y2 + ql_64[3]; 
....................       r = r*y2 + 1.0;  
....................       res = y*res/r; 
....................  
....................       data1 = *(((unsigned int8 *)(&x)+5)); 
....................       rotate_left(&data1,1); 
....................       data2 = *(((unsigned int8 *)(&x)+4)); 
....................       if(bit_test (data2,7)) 
....................       bit_set(data1,0); 
....................        
....................       n = data1 - 0x7E; 
....................  
....................       if (n<0) 
....................       r = -(float48)-n; 
....................       else 
....................       r = (float48)n; 
....................  
....................       res += r*LN2; 
....................    } 
....................  
....................    else 
....................    res = 0.0; 
....................  
....................    return(res); 
.................... } 
....................  
.................... float64 log(float64 x) 
.................... { 
....................    float64 y, res, r, y2; 
....................    unsigned int16  data1,data2; 
....................    unsigned int16 *p; 
....................    signed int16 n; 
....................    #ifdef _ERRNO 
....................    if(x <0) 
....................    { 
....................       errno=EDOM; 
....................    } 
....................    if(x ==0) 
....................    { 
....................       errno=ERANGE; 
....................       return(0); 
....................    } 
....................    #endif 
....................    y = x; 
....................  
....................    if (y != 1.0) 
....................    { 
....................    #if !defined(__PCD__) 
....................        *((unsigned int8 *)(&y)) = 0x7E;  
....................    #endif 
....................       p= (((unsigned int16 *)(&y))+3); 
....................       data1 = *p; 
....................       data2 = *p; 
....................       data1 = 0x3FE; 
....................       data1 = data1 <<4; 
....................       if(bit_test (data2,15)) 
....................          bit_set(data1,15); 
....................       data2 = data2 & 0x000F; 
....................       data1 ^=data2; 
....................  
....................       *p = data1; 
....................  
....................       y = (y - 1.0)/(y + 1.0); 
....................  
....................       y2=y*y; 
....................  
....................       res = pl_64[0]*y2 + pl_64[1]; 
....................       res = res*y2 + pl_64[2]; 
....................       res = res*y2 + pl_64[3]; 
....................  
....................       r = ql_64[0]*y2 + ql_64[1]; 
....................       r = r*y2 + ql_64[2]; 
....................       r = r*y2 + ql_64[3]; 
....................       r = r*y2 + 1.0; 
....................  
....................       res = y*res/r; 
....................   
....................       p= (((unsigned int16 *)(&x))+3); 
....................       data1 = *p; 
....................       bit_clear(data1,15); 
....................       data1 = data1 >>4;     
....................       n = data1 - 0x3FE; 
....................  
....................  
....................       if (n<0) 
....................          r = -(float64)-n; 
....................       else 
....................          r = (float64)n; 
....................  
....................       res += r*LN2; 
....................    } 
....................  
....................    else 
....................       res = 0.0; 
....................  
....................    return(res); 
.................... } 
.................... #endif 
....................  
....................  
.................... #define LN10 2.3025850929940456 
.................... #define LN10_INV 0.4342944819032518276 
....................  
.................... //////////////////////////////////////////////////////////////////////////// 
.................... //   float log10(float x) 
.................... //////////////////////////////////////////////////////////////////////////// 
.................... // Description : returns the the log base 10 of x 
.................... // Date : N/A 
.................... // 
.................... float32 log10(float32 x) 
.................... { 
....................    float32 r; 
....................  
....................    r = log(x); 
....................    r = r*LN10_INV; 
....................    return(r); 
.................... } 
....................  
.................... //Overloaded functions for log10() for PCD 
.................... // Overloaded function log10() for data type - Float48 
.................... #if defined(__PCD__) 
.................... float48 log10(float48 x) 
.................... { 
....................    float48 r; 
....................  
....................    r = log(x); 
....................    r = r*LN10_INV; 
....................    return(r); 
.................... } 
....................  
.................... // Overloaded function log10() for data type - Float64 
.................... float64 log10(float64 x) 
.................... { 
....................    float64 r; 
....................  
....................    r = log(x); 
....................    r = r*LN10_INV; 
....................    return(r); 
.................... } 
.................... #endif 
.................... //////////////////////////////////////////////////////////////////////////// 
.................... //   float modf(float x) 
.................... //////////////////////////////////////////////////////////////////////////// 
.................... // Description :breaks the argument value int integral and fractional parts, 
.................... // ach of which have the same sign as the argument.  It stores the integral part 
.................... // as a float in the object pointed to by the iptr 
.................... // Returns : returns the signed fractional part of value. 
.................... // Date : N/A 
.................... // 
....................  
.................... float32 modf(float32 value,float32 *iptr) 
.................... { 
....................    *iptr=(value < 0.0)? ceil(value): floor(value); 
....................    return(value - *iptr); 
.................... } 
.................... //Overloaded functions for modf() for PCD 
.................... // Overloaded function modf() for data type - Float48 
.................... #if defined(__PCD__) 
.................... float48 modf(float48 value,float48 *iptr) 
.................... { 
....................    *iptr=(value < 0.0)? ceil(value): floor(value); 
....................    return(value - *iptr); 
.................... } 
.................... // Overloaded function modf() for data type - Float64 
.................... float64 modf(float64 value,float64 *iptr) 
.................... { 
....................    *iptr=(value < 0.0)? ceil(value): floor(value); 
....................    return(value - *iptr); 
.................... } 
.................... #endif 
....................  
.................... //////////////////////////////////////////////////////////////////////////// 
.................... //   float pwr(float x,float y) 
.................... //////////////////////////////////////////////////////////////////////////// 
.................... // Description : returns the value (x^y) 
.................... // Date : N/A 
.................... // Note : 0 is returned when the function will generate an imaginary number 
.................... // 
.................... float32 pwr(float32 x,float32 y) 
.................... { 
....................    if(0 > x && fmod(y, 1) == 0) { 
....................       if(fmod(y, 2) == 0) { 
....................          return (exp(log(-x) * y)); 
....................       } else { 
....................          return (-exp(log(-x) * y)); 
....................       } 
....................    } else if(0 > x && fmod(y, 1) != 0) { 
....................       return 0; 
....................    } else { 
....................       if(x != 0 || 0 >= y) { 
....................          return (exp(log(x) * y)); 
....................       } 
....................    } 
.................... } 
.................... //Overloaded functions for pwr() for PCD 
.................... // Overloaded function pwr() for data type - Float48 
.................... #if defined(__PCD__) 
.................... float48 pwr(float48 x,float48 y) 
.................... { 
....................    if(0 > x && fmod(y, 1) == 0) { 
....................       if(fmod(y, 2) == 0) { 
....................          return (exp(log(-x) * y)); 
....................       } else { 
....................          return (-exp(log(-x) * y)); 
....................       } 
....................    } else if(0 > x && fmod(y, 1) != 0) { 
....................       return 0; 
....................    } else { 
....................       if(x != 0 || 0 >= y) { 
....................          return (exp(log(x) * y)); 
....................       } 
....................    } 
.................... } 
.................... // Overloaded function pwr() for data type - Float64 
.................... float64 pwr(float64 x,float64 y) 
.................... { 
....................    if(0 > x && fmod(y, 1) == 0) { 
....................       if(fmod(y, 2) == 0) { 
....................          return (exp(log(-x) * y)); 
....................       } else { 
....................          return (-exp(log(-x) * y)); 
....................       } 
....................    } else if(0 > x && fmod(y, 1) != 0) { 
....................       return 0; 
....................    } else { 
....................       if(x != 0 || 0 >= y) { 
....................          return (exp(log(x) * y)); 
....................       } 
....................    } 
.................... } 
.................... #endif 
....................  
.................... //////////////////// Power functions //////////////////// 
....................  
.................... //////////////////////////////////////////////////////////////////////////// 
.................... //   float pow(float x,float y) 
.................... //////////////////////////////////////////////////////////////////////////// 
.................... // Description : returns the value (x^y) 
.................... // Date : N/A 
.................... // Note : 0 is returned when the function will generate an imaginary number 
.................... // 
.................... float32 pow(float32 x,float32 y) 
.................... { 
....................    if(0 > x && fmod(y, 1) == 0) { 
....................       if(fmod(y, 2) == 0) { 
....................          return (exp(log(-x) * y)); 
....................       } else { 
....................          return (-exp(log(-x) * y)); 
....................       } 
....................    } else if(0 > x && fmod(y, 1) != 0) { 
....................       return 0; 
....................    } else { 
....................       if(x != 0 || 0 >= y) { 
....................          return (exp(log(x) * y)); 
....................       } 
....................    } 
.................... } 
.................... //Overloaded functions for pow() for PCD 
.................... // Overloaded function for pow() data type - Float48 
.................... #if defined(__PCD__) 
.................... float48 pow(float48 x,float48 y) 
.................... { 
....................    if(0 > x && fmod(y, 1) == 0) { 
....................       if(fmod(y, 2) == 0) { 
....................          return (exp(log(-x) * y)); 
....................       } else { 
....................          return (-exp(log(-x) * y)); 
....................       } 
....................    } else if(0 > x && fmod(y, 1) != 0) { 
....................       return 0; 
....................    } else { 
....................       if(x != 0 || 0 >= y) { 
....................          return (exp(log(x) * y)); 
....................       } 
....................    } 
.................... } 
....................  
.................... // Overloaded function pow() for data type - Float64 
.................... float64 pow(float64 x,float64 y) 
.................... { 
....................    if(0 > x && fmod(y, 1) == 0) { 
....................       if(fmod(y, 2) == 0) { 
....................          return (exp(log(-x) * y)); 
....................       } else { 
....................          return (-exp(log(-x) * y)); 
....................       } 
....................    } else if(0 > x && fmod(y, 1) != 0) { 
....................       return 0; 
....................    } else { 
....................       if(x != 0 || 0 >= y) { 
....................          return (exp(log(x) * y)); 
....................       } 
....................    } 
.................... } 
.................... #endif 
....................  
.................... //////////////////////////////////////////////////////////////////////////// 
.................... //   float sqrt(float x) 
.................... //////////////////////////////////////////////////////////////////////////// 
.................... // Description : returns the square root of x 
.................... // Date : N/A 
.................... // 
.................... float32 sqrt(float32 x) 
.................... { 
....................    float32 y, res; 
....................    #if defined(__PCD__) 
....................    unsigned int16 data1,data2; 
....................    #endif 
....................    unsigned int8 *p; 
....................  
....................    #ifdef _ERRNO 
....................    if(x < 0) 
....................    { 
....................       errno=EDOM; 
....................    } 
....................    #endif 
....................  
....................    if( x<=0.0) 
....................       return(0.0); 
....................  
....................    y=x; 
....................     
....................    #if !defined(__PCD__) 
....................     p=&y; 
....................    (*p)=(unsigned int8)((((unsigned int16)(*p)) + 127) >> 1); 
....................    #endif 
....................     
....................    #if defined(__PCD__) 
....................     p = (((unsigned int8 *)(&y))+3); 
....................     data1 = *(((unsigned int8 *)(&y))+3); 
....................     data2 = *(((unsigned int8 *)(&y))+2); 
....................     rotate_left(&data1,1);     
....................     if(bit_test(data2,7))     
....................        bit_set(data1,0);     
....................     data1 = ((data1+127) >>1); 
....................     bit_clear(data2,7); 
....................     if(bit_test(data1,0)) 
....................        bit_set(data2,7); 
....................     data1 = data1 >>1; 
....................     *(((unsigned int8 *)(&y))+3) = data1; 
....................     *(((unsigned int8 *)(&y))+2) = data2; 
....................      
....................   #endif 
....................  
....................    do { 
....................       res=y; 
....................       y+=(x/y); 
....................  
....................       #if !defined(__PCD__) 
....................      (*p)--; 
....................    #endif 
....................     
....................    #if defined(__PCD__) 
....................     data1 = *(((unsigned int8 *)(&y))+3); 
....................     data2 = *(((unsigned int8 *)(&y))+2); 
....................     rotate_left(&data1,1); 
....................     if(bit_test(data2,7)) 
....................        bit_set(data1,0);     
....................     data1--; 
....................     bit_clear(data2,7); 
....................     if(bit_test(data1,0)) 
....................        bit_set(data2,7); 
....................     data1 = data1 >>1; 
....................     *(((unsigned int8 *)(&y))+3) = data1; 
....................     *(((unsigned int8 *)(&y))+2) = data2; 
....................      
....................   #endif 
....................    } while(res != y); 
....................  
....................    return(res); 
.................... } 
.................... //Overloaded functions for sqrt() for PCD 
.................... // Overloaded function sqrt() for data type - Float48 
.................... #if defined(__PCD__) 
.................... float48 sqrt(float48 x) 
.................... { 
....................    float48 y, res; 
....................    unsigned int16 data1,data2; 
....................    unsigned int8 *p; 
....................  
....................    #ifdef _ERRNO 
....................    if(x < 0) 
....................    { 
....................       errno=EDOM; 
....................    } 
....................    #endif 
....................  
....................    if( x<=0.0) 
....................       return(0.0); 
....................  
....................    y=x; 
....................     
....................    #if !defined(__PCD__) 
....................     p=&y; 
....................    (*p)=(unsigned int8)((((unsigned int16)(*p)) + 127) >> 1); 
....................    #endif 
....................     
....................    #if defined(__PCD__) 
....................     p = (((unsigned int8 *)(&y))+5); 
....................     data1 = *(((unsigned int8 *)(&y))+5); 
....................     data2 = *(((unsigned int8 *)(&y))+4); 
....................     rotate_left(&data1,1); 
....................     if(bit_test(data2,7)) 
....................        bit_set(data1,0);     
....................     data1 = ((data1+127) >>1); 
....................     bit_clear(data2,7); 
....................     if(bit_test(data1,0)) 
....................        bit_set(data2,7); 
....................     data1 = data1 >>1; 
....................     *(((unsigned int8 *)(&y))+5) = data1; 
....................     *(((unsigned int8 *)(&y))+4) = data2; 
....................      
....................   #endif 
....................  
....................    do { 
....................       res=y; 
....................       y+=(x/y); 
....................  
....................       #if !defined(__PCD__) 
....................      (*p)--; 
....................    #endif 
....................     
....................     data1 = *(((unsigned int8 *)(&y))+5); 
....................     data2 = *(((unsigned int8 *)(&y))+4); 
....................     rotate_left(&data1,1); 
....................     if(bit_test(data2,7)) 
....................        bit_set(data1,0);     
....................     data1--; 
....................     bit_clear(data2,7); 
....................     if(bit_test(data1,0)) 
....................        bit_set(data2,7); 
....................     data1 = data1 >>1; 
....................     *(((unsigned int8 *)(&y))+5) = data1; 
....................     *(((unsigned int8 *)(&y))+4) = data2; 
....................      
....................    } while(res != y); 
....................  
....................    return(res); 
.................... } 
....................  
.................... // Overloaded function sqrt() for data type - Float64 
.................... float64 sqrt(float64 x) 
.................... { 
....................    float64 y, res; 
....................    unsigned int16 *p; 
....................    unsigned int16 temp1,temp2; 
....................  
....................    #ifdef _ERRNO 
....................    if(x < 0) 
....................    { 
....................       errno=EDOM; 
....................    } 
....................    #endif 
....................  
....................    if( x<=0.0) 
....................       return(0.0); 
....................  
....................    y=x; 
....................    p= (((unsigned int16 *)(&y))+3); 
....................    temp1 = *p; 
....................    temp2 = *p; 
....................    bit_clear(temp1,15); 
....................    temp1 = (temp1>>4)+1023; 
....................    temp1 = temp1 >> 1; 
....................    temp1 = (temp1<<4) & 0xFFF0; 
....................    if(bit_test(temp2,15)) 
....................       bit_set(temp1,15); 
....................    temp2 = temp2 & 0x000F; 
....................    temp1 ^= temp2; 
....................     
....................    (*p) = temp1; 
....................     
....................    do { 
....................       res=y; 
....................       y+=(x/y); 
....................      temp1 = *p; 
....................      temp2 = *p; 
....................      bit_clear(temp1,15); 
....................      temp1 = (temp1>>4); 
....................      temp1--; 
....................      temp1 = (temp1<<4) & 0xFFF0; 
....................      if(bit_test(temp2,15)) 
....................         bit_set(temp1,15); 
....................      temp2 = temp2 & 0x000F; 
....................      temp1 ^= temp2; 
....................      (*p) = temp1; 
....................  
....................    } while(res != y); 
....................  
....................    return(res); 
.................... } 
.................... #endif 
....................  
.................... ////////////////////////////// Trig Functions ////////////////////////////// 
.................... #ifdef PI_DIV_BY_TWO_INV 
.................... #undef PI_DIV_BY_TWO_INV 
.................... #endif 
.................... #define PI_DIV_BY_TWO_INV 0.63661977236758134 
.................... #ifdef PI_DIV_BY_TWO 
.................... #undef PI_DIV_BY_TWO 
.................... #endif 
.................... #define PI_DIV_BY_TWO   1.5707963267948966 
.................... #ifdef TWOBYPI 
.................... #undef TWOBYPI 
.................... #endif 
.................... #define TWOBYPI          0.6366197723675813 
....................  
.................... //////////////////////////////////////////////////////////////////////////// 
.................... //   float cos(float x) 
.................... //////////////////////////////////////////////////////////////////////////// 
.................... // Description : returns the cosine value of the angle x, which is in radian 
.................... // Date : 9/20/2001 
.................... // 
.................... float32 cos(float32 x) 
.................... { 
....................    float32 y, t, t2 = 1.0; 
....................    unsigned int8 quad, i; 
....................    float32 frac; 
....................    float32 p[5] = {                    //by the series definition for cosine 
....................       -0.49999999456337096,            // sum ( ( (-1)^n * x^2n )/(2n)! ) 
....................        0.04166663896921267, 
....................       -0.00138883894522527, 
....................        0.00002476138231734, 
....................       -0.00000026070414770 
....................       //-0.00000000001147, 
....................       // 0.00000000000005 
....................    }; 
....................  
....................    if (x < 0) x = -x;                  // absolute value of input 
....................  
....................    quad = (unsigned int8)(x * PI_DIV_BY_TWO_INV);    // quadrant 
....................    frac = (x * PI_DIV_BY_TWO_INV) - quad;  // fractional part of input 
....................    quad = quad % 4;                    // quadrant (0 to 3) 
....................  
....................    if (quad == 0 || quad == 2) 
....................       t = frac * PI_DIV_BY_TWO; 
....................    else if (quad == 1) 
....................       t = (1-frac) * PI_DIV_BY_TWO; 
....................    else // should be 3 
....................       t = (frac-1) * PI_DIV_BY_TWO; 
....................  
....................    y = 1.0; 
....................    t = t * t; 
....................    for (i = 0; i <= 4; i++) 
....................    { 
....................       t2 = t2 * t; 
....................       y = y + p[i] * t2; 
....................    } 
....................  
....................    if (quad == 2 || quad == 1) 
....................       y = -y;  // correct sign 
....................  
....................    return (y); 
.................... } 
....................  
....................  
.................... //Overloaded functions for cos() for PCD 
.................... // Overloaded function cos() for data type - Float48 
.................... #if defined(__PCD__) 
.................... float48 cos(float48 x) 
.................... { 
....................    float48 y, t, t2 = 1.0; 
....................    unsigned int8 quad, i; 
....................    float48 frac; 
....................    float48 p[6] = {                    //by the series definition for cosine 
....................       -0.5,                            // sum ( ( (-1)^n * x^2n )/(2n)! ) 
....................        0.04166666666667, 
....................       -0.00138888888889, 
....................        0.00002480158730, 
....................       -0.00000027557319, 
....................        0.00000000208767, 
....................       //-0.00000000001147, 
....................       // 0.00000000000005 
....................    }; 
....................  
....................    if (x < 0) x = -x;                  // absolute value of input 
....................  
....................    quad = (unsigned int8)(x * PI_DIV_BY_TWO_INV);    // quadrant 
....................    frac = (x * PI_DIV_BY_TWO_INV) - quad;  // fractional part of input 
....................    quad = quad % 4;                    // quadrant (0 to 3) 
....................  
....................    if (quad == 0 || quad == 2) 
....................       t = frac * PI_DIV_BY_TWO; 
....................    else if (quad == 1) 
....................       t = (1-frac) * PI_DIV_BY_TWO; 
....................    else // should be 3 
....................       t = (frac-1) * PI_DIV_BY_TWO; 
....................  
....................    y = 0.999999999781; 
....................    t = t * t; 
....................    for (i = 0; i <= 5; i++) 
....................    { 
....................       t2 = t2 * t; 
....................       y = y + p[i] * t2; 
....................    } 
....................  
....................    if (quad == 2 || quad == 1) 
....................       y = -y;  // correct sign 
....................  
....................    return (y); 
.................... } 
....................  
.................... // Overloaded function cos() for data type - Float64 
.................... float64 cos(float64 x) 
.................... { 
....................    float64 y, t, t2 = 1.0; 
....................    unsigned int8 quad, i; 
....................    float64 frac; 
....................    float64 p_64[9] = {               //by the series definition for cosine 
....................      -0.49999999999998740,           // sum ( ( (-1)^n * x^2n )/(2n)! )              
....................       0.04166666666656518, 
....................      -0.00138888888851691, 
....................       0.00002480158658490, 
....................      -0.00000027557239796, 
....................       0.00000000208715031, 
....................      -0.00000000001126577, 
....................       0.00000000000000427, 
....................       0.00000000000000372}; 
....................  
....................    if (x < 0) x = -x;                  // absolute value of input 
....................  
....................    quad = (unsigned int8)(x * PI_DIV_BY_TWO_INV);    // quadrant 
....................    frac = (x * PI_DIV_BY_TWO_INV) - quad;  // fractional part of input 
....................    quad = quad % 4;                    // quadrant (0 to 3) 
....................  
....................    if (quad == 0 || quad == 2) 
....................       t = frac * PI_DIV_BY_TWO; 
....................    else if (quad == 1) 
....................       t = (1-frac) * PI_DIV_BY_TWO; 
....................    else // should be 3 
....................       t = (frac-1) * PI_DIV_BY_TWO; 
....................  
....................    y = 1.0; 
....................    t = t * t; 
....................    for (i = 0; i <= 8; i++) 
....................    { 
....................       t2 = t2 * t; 
....................       y = y + p_64[i] * t2; 
....................    } 
....................  
....................    if (quad == 2 || quad == 1) 
....................       y = -y;  // correct sign 
....................  
....................    return (y); 
.................... } 
....................  
.................... #endif 
....................  
.................... //////////////////////////////////////////////////////////////////////////// 
.................... //   float sin(float x) 
.................... //////////////////////////////////////////////////////////////////////////// 
.................... // Description : returns the sine value of the angle x, which is in radian 
.................... // Date : 9/20/2001 
.................... // 
.................... float32 sin(float32 x) 
.................... { 
....................    return cos(x - PI_DIV_BY_TWO); 
.................... } 
....................  
.................... //Overloaded functions for sin() for PCD 
.................... // Overloaded function sin() for data type - Float48 
.................... #if defined(__PCD__) 
.................... float48 sin(float48 x) 
.................... { 
....................    return cos(x - PI_DIV_BY_TWO); 
.................... } 
....................  
.................... // Overloaded function sin() for data type - Float48 
.................... float64 sin(float64 x) 
.................... { 
....................    return cos(x - PI_DIV_BY_TWO); 
.................... } 
.................... #endif 
....................  
.................... //////////////////////////////////////////////////////////////////////////// 
.................... //   float tan(float x) 
.................... //////////////////////////////////////////////////////////////////////////// 
.................... // Description : returns the tangent value of the angle x, which is in radian 
.................... // Date : 9/20/2001 
.................... // 
.................... float32 tan(float32 x) 
.................... { 
....................    float32 c, s; 
....................  
....................    c = cos(x); 
....................    if (c == 0.0) 
....................       return (1.0e+36); 
....................  
....................    s = sin(x); 
....................    return(s/c); 
.................... } 
.................... //Overloaded functions for tan() for PCD 
.................... // Overloaded function tan() for data type - Float48 
.................... #if defined(__PCD__) 
.................... float48 tan(float48 x) 
.................... { 
....................    float48 c, s; 
....................  
....................    c = cos(x); 
....................    if (c == 0.0) 
....................       return (1.0e+36); 
....................  
....................    s = sin(x); 
....................    return(s/c); 
.................... } 
....................  
.................... // Overloaded function tan() for data type - Float48 
.................... float64 tan(float64 x) 
.................... { 
....................    float64 c, s; 
....................  
....................    c = cos(x); 
....................    if (c == 0.0) 
....................       return (1.0e+36); 
....................  
....................    s = sin(x); 
....................    return(s/c); 
.................... } 
.................... #endif 
....................  
.................... float32 const pas[3] = {0.49559947, -4.6145309, 5.6036290}; 
.................... float32 const qas[3] = {1.0000000,  -5.5484666, 5.6036290}; 
....................  
.................... float32 ASIN_COS(float32 x, unsigned int8 n) 
.................... { 
....................    float32 y, res, r, y2; 
....................    int1 s; 
....................    #ifdef _ERRNO 
....................    if(x <-1 || x > 1) 
....................    { 
....................       errno=EDOM; 
....................    } 
....................    #endif 
....................    s = 0; 
....................    y = x; 
....................  
....................    if (x < 0) 
....................    { 
....................       s = 1; 
....................       y = -y; 
....................    } 
....................  
....................    if (y > 0.5) 
....................    { 
....................       y = sqrt((1.0 - y)*0.5); 
....................       n += 2; 
....................    } 
....................  
....................    y2=y*y; 
....................  
....................    res = pas[0]*y2 + pas[1]; 
....................    res = res*y2 + pas[2]; 
....................  
....................    r = qas[0]*y2 + qas[1]; 
....................    r = r*y2 + qas[2]; 
....................  
....................    res = y*res/r; 
....................  
....................    if (n & 2)     // |x| > 0.5 
....................       res = PI_DIV_BY_TWO - 2.0*res; 
....................    if (s) 
....................       res = -res; 
....................    if (n & 1)           // take arccos 
....................       res = PI_DIV_BY_TWO - res; 
....................  
....................    return(res); 
.................... } 
....................  
....................  
.................... //Overloaded functions for ASIN_COS() for PCD 
.................... // Overloaded function ASIN_COS() for data type - Float48 
.................... #if defined(__PCD__) 
.................... float48 ASIN_COS(float48 x, unsigned int8 n) 
.................... { 
....................    float48 y, res, r, y2; 
....................    int1 s; 
....................    #ifdef _ERRNO 
....................    if(x <-1 || x > 1) 
....................    { 
....................       errno=EDOM; 
....................    } 
....................    #endif 
....................    s = 0; 
....................    y = x; 
....................  
....................    if (x < 0) 
....................    { 
....................       s = 1; 
....................       y = -y; 
....................    } 
....................  
....................    if (y > 0.5) 
....................    { 
....................       y = sqrt((1.0 - y)*0.5); 
....................       n += 2; 
....................    } 
....................  
....................    y2=y*y; 
....................  
....................    res = pas[0]*y2 + pas[1]; 
....................    res = res*y2 + pas[2]; 
....................  
....................    r = qas[0]*y2 + qas[1]; 
....................    r = r*y2 + qas[2]; 
....................  
....................    res = y*res/r; 
....................  
....................    if (n & 2)     // |x| > 0.5 
....................       res = PI_DIV_BY_TWO - 2.0*res; 
....................    if (s) 
....................       res = -res; 
....................    if (n & 1)           // take arccos 
....................       res = PI_DIV_BY_TWO - res; 
....................  
....................    return(res); 
.................... } 
....................  
.................... // Overloaded function ASIN_COS() for data type - Float64 
.................... double pas_64[5]={1.000000000000000,-2.069938587724477,1.421444580548907, 
....................                  -0.360690137621842,0.024929451660228}; 
....................  
.................... double qas_64[5]={-2.236605254391134,1.719212122946451,-0.524122954476133, 
....................                    0.052808872045749,-0.000662536036570}; 
....................                     
.................... float64 ASIN_COS(float64 x, unsigned int8 n) 
.................... { 
....................    float64 y, res, r, y2; 
....................    int1 s; 
....................    #ifdef _ERRNO 
....................    if(x <-1 || x > 1) 
....................    { 
....................       errno=EDOM; 
....................    } 
....................    #endif 
....................    s = 0; 
....................    y = x; 
....................  
....................    if (x < 0) 
....................    { 
....................       s = 1; 
....................       y = -y; 
....................    } 
....................  
....................    if (y > 0.5) 
....................    { 
....................       y = sqrt((1.0 - y)*0.5); 
....................       n += 2; 
....................    } 
....................  
....................    y2=y*y; 
....................  
....................    res = pas_64[4]*y2 + pas_64[3]; 
....................    res = res*y2 + pas_64[2]; 
....................    res = res*y2 + pas_64[1]; 
....................    res = res*y2 + pas_64[0]; 
....................  
....................    r = qas_64[4]*y2 + qas_64[3]; 
....................    r = r*y2 + qas_64[2]; 
....................    r = r*y2 + qas_64[1]; 
....................    r = r*y2 + qas_64[0]; 
....................    r = r*y2 + 1.0; 
....................  
....................    res = y*res/r; 
....................  
....................    if (n & 2)     // |x| > 0.5 
....................       res = PI_DIV_BY_TWO - 2.0*res; 
....................    if (s) 
....................       res = -res; 
....................    if (n & 1)           // take arccos 
....................       res = PI_DIV_BY_TWO - res; 
....................  
....................    return(res); 
.................... } 
.................... #endif 
....................  
.................... //////////////////////////////////////////////////////////////////////////// 
.................... //   float asin(float x) 
.................... //////////////////////////////////////////////////////////////////////////// 
.................... // Description : returns the arcsine value of the value x. 
.................... // Date : N/A 
.................... // 
.................... float32 asin(float32 x) 
.................... { 
....................    float32 r; 
....................  
....................    r = ASIN_COS(x, 0); 
....................    return(r); 
.................... } 
.................... //Overloaded functions for asin() for PCD 
.................... // Overloaded function asin() for data type - Float48 
.................... #if defined(__PCD__) 
.................... float48 asin(float48 x) 
.................... { 
....................    float48 r; 
....................  
....................    r = ASIN_COS(x, 0); 
....................    return(r); 
.................... } 
....................  
.................... // Overloaded function asin() for data type - Float64 
.................... float64 asin(float64 x) 
.................... { 
....................    float64 r; 
....................  
....................    r = ASIN_COS(x, 0); 
....................    return(r); 
.................... } 
.................... #endif 
....................  
.................... //////////////////////////////////////////////////////////////////////////// 
.................... //   float acos(float x) 
.................... //////////////////////////////////////////////////////////////////////////// 
.................... // Description : returns the arccosine value of the value x. 
.................... // Date : N/A 
.................... // 
.................... float32 acos(float32 x) 
.................... { 
....................    float32 r; 
....................  
....................    r = ASIN_COS(x, 1); 
....................    return(r); 
.................... } 
.................... //Overloaded functions for acos() for PCD 
.................... // Overloaded function acos() for data type - Float48 
.................... #if defined(__PCD__) 
.................... float48 acos(float48 x) 
.................... { 
....................    float48 r; 
....................  
....................    r = ASIN_COS(x, 1); 
....................    return(r); 
.................... } 
....................  
.................... // Overloaded function acos() for data type - Float64 
.................... float64 acos(float64 x) 
.................... { 
....................    float64 r; 
....................  
....................    r = ASIN_COS(x, 1); 
....................    return(r); 
.................... } 
.................... #endif 
....................  
.................... float32 const pat[4] = {0.17630401, 5.6710795, 22.376096, 19.818457}; 
.................... float32 const qat[4] = {1.0000000,  11.368190, 28.982246, 19.818457}; 
....................  
.................... //////////////////////////////////////////////////////////////////////////// 
.................... //   float atan(float x) 
.................... //////////////////////////////////////////////////////////////////////////// 
.................... // Description : returns the arctangent value of the value x. 
.................... // Date : N/A 
.................... // 
.................... float32 atan(float32 x) 
.................... { 
....................    float32 y, res, r; 
....................    int1 s, flag; 
....................  
....................    s = 0; 
....................    flag = 0; 
....................    y = x; 
....................  
....................    if (x < 0) 
....................    { 
....................       s = 1; 
....................       y = -y; 
....................    } 
....................  
....................    if (y > 1.0) 
....................    { 
....................       y = 1.0/y; 
....................       flag = 1; 
....................    } 
....................  
....................    res = pat[0]*y*y + pat[1]; 
....................    res = res*y*y + pat[2]; 
....................    res = res*y*y + pat[3]; 
....................  
....................    r = qat[0]*y*y + qat[1]; 
....................    r = r*y*y + qat[2]; 
....................    r = r*y*y + qat[3]; 
....................  
....................    res = y*res/r; 
....................  
....................  
....................    if (flag)                              // for |x| > 1 
....................       res = PI_DIV_BY_TWO - res; 
....................    if (s) 
....................       res = -res; 
....................  
....................    return(res); 
.................... } 
.................... //Overloaded functions for atan() for PCD 
.................... // Overloaded function atan() for data type - Float48 
.................... #if defined(__PCD__) 
.................... float48 atan(float48 x) 
.................... { 
....................    float48 y, res, r; 
....................    int1 s, flag; 
....................  
....................    s = 0; 
....................    flag = 0; 
....................    y = x; 
....................  
....................    if (x < 0) 
....................    { 
....................       s = 1; 
....................       y = -y; 
....................    } 
....................  
....................    if (y > 1.0) 
....................    { 
....................       y = 1.0/y; 
....................       flag = 1; 
....................    } 
....................  
....................    res = pat[0]*y*y + pat[1]; 
....................    res = res*y*y + pat[2]; 
....................    res = res*y*y + pat[3]; 
....................  
....................    r = qat[0]*y*y + qat[1]; 
....................    r = r*y*y + qat[2]; 
....................    r = r*y*y + qat[3]; 
....................  
....................    res = y*res/r; 
....................  
....................  
....................    if (flag)                              // for |x| > 1 
....................       res = PI_DIV_BY_TWO - res; 
....................    if (s) 
....................       res = -res; 
....................  
....................    return(res); 
.................... } 
....................  
.................... float64 pat_64[6]={0.999999999999999,2.249923645595566,1.771541617806449, 
....................                    0.579678874003185,0.072162702162882,0.002281100141660}; 
....................  
.................... float64 qat_64[6]={2.583256978928510,2.432627277466967,1.016760379885393, 
....................                    0.182482977188688,0.011155377971690,0.000100013019160}; 
.................... // Overloaded function atan() for data type - Float64 
.................... float64 atan(float64 x) 
.................... { 
....................    float64 y,y2, res, r; 
....................    int1 s, flag; 
....................  
....................    s = 0; 
....................    flag = 0; 
....................    y = x; 
....................  
....................    if (x < 0) 
....................    { 
....................       s = 1; 
....................       y = -y; 
....................    } 
....................  
....................    if (y > 1.0) 
....................    { 
....................       y = 1.0/y; 
....................       flag = 1; 
....................    } 
....................    y2 = y*y; 
....................    res = pat_64[5]*y2 + pat_64[4]; 
....................    res = res*y2 + pat_64[3]; 
....................    res = res*y2 + pat_64[2]; 
....................    res = res*y2 + pat_64[1]; 
....................    res = res*y2 + pat_64[0]; 
....................  
....................    r = qat_64[5]*y2 + qat_64[4]; 
....................    r = r*y2 + qat_64[3]; 
....................    r = r*y2 + qat_64[2]; 
....................    r = r*y2 + qat_64[1]; 
....................    r = r*y2 + qat_64[0]; 
....................    r = r*y2 + 1.0; 
....................  
....................    res = y*res/r; 
....................  
....................  
....................    if (flag)                              // for |x| > 1 
....................       res = PI_DIV_BY_TWO - res; 
....................    if (s) 
....................       res = -res; 
....................  
....................    return(res); 
.................... } 
.................... #endif 
....................  
.................... ///////////////////////////////////////////////////////////////////////////// 
.................... //   float atan2(float y, float x) 
.................... ///////////////////////////////////////////////////////////////////////////// 
.................... // Description :computes the principal value of arc tangent of y/x, using the 
.................... // signs of both the arguments to determine the quadrant of the return value 
.................... // Returns : returns the arc tangent of y/x. 
.................... // Date : N/A 
.................... // 
....................  
.................... float32 atan2(float32 y,float32 x) 
.................... { 
....................    float32 z; 
....................    int1 sign; 
....................    unsigned int8 quad; 
....................    sign=0; 
....................    quad=0; //quadrant 
....................    quad=((y<=0.0)?((x<=0.0)?3:4):((x<0.0)?2:1)); 
....................    if(y<0.0) 
....................    { 
....................       sign=1; 
....................       y=-y; 
....................    } 
....................    if(x<0.0) 
....................    { 
....................       x=-x; 
....................    } 
....................    if (x==0.0) 
....................    { 
....................       if(y==0.0) 
....................       { 
....................       #ifdef _ERRNO 
....................       { 
....................          errno=EDOM; 
....................       } 
....................       #endif 
....................       } 
....................       else 
....................       { 
....................          if(sign) 
....................          { 
....................          return (-(PI_DIV_BY_TWO)); 
....................          } 
....................          else 
....................          { 
....................          return (PI_DIV_BY_TWO); 
....................          } 
....................       } 
....................    } 
....................    else 
....................    { 
....................       z=y/x; 
....................       switch(quad) 
....................       { 
....................          case 1: 
....................          { 
....................             return atan(z); 
....................             break; 
....................          } 
....................          case 2: 
....................          { 
.................... //            return (atan(z)+PI_DIV_BY_TWO);  //2L3122 
....................             return (PI-atan(z)); 
....................             break; 
....................          } 
....................          case 3: 
....................          { 
....................             return (atan(z)-PI); 
....................             break; 
....................          } 
....................          case 4: 
....................          { 
....................             return (-atan(z)); 
....................             break; 
....................          } 
....................       } 
....................    } 
.................... } 
....................  
.................... //Overloaded functions for atan2() for PCD 
.................... // Overloaded function atan2() for data type - Float48 
.................... #if defined(__PCD__) 
.................... float48 atan2(float48 y,float48 x) 
.................... { 
....................    float48 z; 
....................    int1 sign; 
....................    unsigned int8 quad; 
....................    sign=0; 
....................    quad=0; //quadrant 
....................    quad=((y<=0.0)?((x<=0.0)?3:4):((x<0.0)?2:1)); 
....................    if(y<0.0) 
....................    { 
....................       sign=1; 
....................       y=-y; 
....................    } 
....................    if(x<0.0) 
....................    { 
....................       x=-x; 
....................    } 
....................    if (x==0.0) 
....................    { 
....................       if(y==0.0) 
....................       { 
....................       #ifdef _ERRNO 
....................       { 
....................          errno=EDOM; 
....................       } 
....................       #endif 
....................       } 
....................       else 
....................       { 
....................          if(sign) 
....................          { 
....................          return (-(PI_DIV_BY_TWO)); 
....................          } 
....................          else 
....................          { 
....................          return (PI_DIV_BY_TWO); 
....................          } 
....................       } 
....................    } 
....................    else 
....................    { 
....................       z=y/x; 
....................       switch(quad) 
....................       { 
....................          case 1: 
....................          { 
....................             return atan(z); 
....................             break; 
....................          } 
....................          case 2: 
....................          { 
.................... //            return (atan(z)+PI_DIV_BY_TWO);  //2L3122 
....................             return (PI-atan(z)); 
....................             break; 
....................          } 
....................          case 3: 
....................          { 
....................             return (atan(z)-PI); 
....................             break; 
....................          } 
....................          case 4: 
....................          { 
....................             return (-atan(z)); 
....................             break; 
....................          } 
....................       } 
....................    } 
.................... } 
....................  
.................... // Overloaded function atan2() for data type - Float64 
.................... float64 atan2(float64 y,float64 x) 
.................... { 
....................    float64 z; 
....................    int1 sign; 
....................    unsigned int8 quad; 
....................    sign=0; 
....................    quad=0; //quadrant 
....................    quad=((y<=0.0)?((x<=0.0)?3:4):((x<0.0)?2:1)); 
....................    if(y<0.0) 
....................    { 
....................       sign=1; 
....................       y=-y; 
....................    } 
....................    if(x<0.0) 
....................    { 
....................       x=-x; 
....................    } 
....................    if (x==0.0) 
....................    { 
....................       if(y==0.0) 
....................       { 
....................       #ifdef _ERRNO 
....................       { 
....................          errno=EDOM; 
....................       } 
....................       #endif 
....................       } 
....................       else 
....................       { 
....................          if(sign) 
....................          { 
....................          return (-(PI_DIV_BY_TWO)); 
....................          } 
....................          else 
....................          { 
....................          return (PI_DIV_BY_TWO); 
....................          } 
....................       } 
....................    } 
....................    else 
....................    { 
....................       z=y/x; 
....................       switch(quad) 
....................       { 
....................          case 1: 
....................          { 
....................             return atan(z); 
....................             break; 
....................          } 
....................          case 2: 
....................          { 
.................... //            return (atan(z)+PI_DIV_BY_TWO);  //2L3122 
....................             return (PI-atan(z)); 
....................             break; 
....................          } 
....................          case 3: 
....................          { 
....................             return (atan(z)-PI); 
....................             break; 
....................          } 
....................          case 4: 
....................          { 
....................             return (-atan(z)); 
....................             break; 
....................          } 
....................       } 
....................    } 
.................... } 
.................... #endif 
....................  
.................... //////////////////// Hyperbolic functions //////////////////// 
....................  
.................... //////////////////////////////////////////////////////////////////////////// 
.................... //   float cosh(float x) 
.................... //////////////////////////////////////////////////////////////////////////// 
.................... // Description : Computes the hyperbolic cosine value of x 
.................... // Returns : returns the hyperbolic cosine value of x 
.................... // Date : N/A 
.................... // 
....................  
.................... float32 cosh(float32 x) 
.................... { 
....................    return ((exp(x)+exp(-x))*0.5); 
.................... } 
.................... //Overloaded functions for cosh() for PCD 
.................... // Overloaded function cosh() for data type - Float48 
.................... #if defined(__PCD__) 
.................... float48 cosh(float48 x) 
.................... { 
....................    return ((exp(x)+exp(-x))*0.5); 
.................... } 
....................  
.................... // Overloaded function cosh() for data type - Float64 
.................... float64 cosh(float64 x) 
.................... { 
....................    return ((exp(x)+exp(-x))*0.5); 
.................... } 
.................... #endif 
....................  
.................... //////////////////////////////////////////////////////////////////////////// 
.................... //   float sinh(float x) 
.................... //////////////////////////////////////////////////////////////////////////// 
.................... // Description : Computes the hyperbolic sine value of x 
.................... // Returns : returns the hyperbolic sine value of x 
.................... // Date : N/A 
.................... // 
....................  
.................... float32 sinh(float32 x) 
.................... { 
....................  
....................    return ((exp(x) - exp(-x))*0.5); 
.................... } 
.................... //Overloaded functions for sinh() for PCD 
.................... // Overloaded function sinh() for data type - Float48 
.................... #if defined(__PCD__) 
.................... float48 sinh(float48 x) 
.................... { 
....................  
....................    return ((exp(x) - exp(-x))*0.5); 
.................... } 
....................  
.................... // Overloaded function sinh() for data type - Float48 
.................... float64 sinh(float64 x) 
.................... { 
....................  
....................    return ((exp(x) - exp(-x))*0.5); 
.................... } 
.................... #endif 
....................  
.................... //////////////////////////////////////////////////////////////////////////// 
.................... //   float tanh(float x) 
.................... //////////////////////////////////////////////////////////////////////////// 
.................... // Description : Computes the hyperbolic tangent value of x 
.................... // Returns : returns the hyperbolic tangent value of x 
.................... // Date : N/A 
.................... // 
....................  
.................... float32 tanh(float32 x) 
.................... { 
....................    return(sinh(x)/cosh(x)); 
.................... } 
.................... //Overloaded functions for tanh() for PCD 
.................... // Overloaded function tanh() for data type - Float48 
.................... #if defined(__PCD__) 
.................... float48 tanh(float48 x) 
.................... { 
....................    return(sinh(x)/cosh(x)); 
.................... } 
....................  
.................... // Overloaded function tanh() for data type - Float64 
.................... float64 tanh(float64 x) 
.................... { 
....................    return(sinh(x)/cosh(x)); 
.................... } 
.................... #endif 
....................  
.................... //////////////////////////////////////////////////////////////////////////// 
.................... //   float frexp(float x, signed int *exp) 
.................... //////////////////////////////////////////////////////////////////////////// 
.................... // Description : breaks a floating point number into a normalized fraction and an integral 
.................... // power of 2. It stores the integer in the signed int object pointed to by exp. 
.................... // Returns : returns the value x, such that x is a double with magnitude in the interval 
.................... // [1/2,1) or zero, and value equals x times 2 raised to the power *exp.If value is zero, 
.................... // both parts of the result are zero. 
.................... // Date : N/A 
.................... // 
....................  
.................... #define LOG2 .30102999566398119521 
.................... #define LOG2_INV 3.32192809488736234787 
.................... float32 frexp(float32 x, signed int8 *exp) 
.................... { 
....................    float32 res; 
....................    int1 sign = 0; 
....................    if(x == 0.0) 
....................    { 
....................       *exp=0; 
....................       return (0.0); 
....................    } 
....................    if(x < 0.0) 
....................    { 
....................      x=-x; 
....................      sign=1; 
....................    } 
....................    if (x > 1.0) 
....................    { 
....................       *exp=(ceil(log10(x)*LOG2_INV)); 
....................       res=x/(pow(2, *exp)); 
....................       if (res == 1) 
....................       { 
....................          *exp=*exp+1; 
....................           res=.5; 
....................       } 
....................    } 
....................    else 
....................    { 
....................       if(x < 0.5) 
....................       { 
....................          *exp=-1; 
....................          res=x*2; 
....................       } 
....................       else 
....................       { 
....................          *exp=0; 
....................           res=x; 
....................       } 
....................    } 
....................    if(sign) 
....................    { 
....................       res=-res; 
....................    } 
....................    return res; 
.................... } 
....................  
.................... //Overloaded functions for frexp() for PCD 
.................... // Overloaded function frexp() for data type - Float48 
.................... #if defined(__PCD__) 
.................... float48 frexp(float48 x, signed int8 *exp) 
.................... { 
....................    float48 res; 
....................    int1 sign = 0; 
....................    if(x == 0.0) 
....................    { 
....................       *exp=0; 
....................       return (0.0); 
....................    } 
....................    if(x < 0.0) 
....................    { 
....................      x=-x; 
....................      sign=1; 
....................    } 
....................    if (x > 1.0) 
....................    { 
....................       *exp=(ceil(log10(x)*LOG2_INV)); 
....................       res=x/(pow(2, *exp)); 
....................       if (res == 1) 
....................       { 
....................          *exp=*exp+1; 
....................           res=.5; 
....................       } 
....................    } 
....................    else 
....................    { 
....................       if(x < 0.5) 
....................       { 
....................          *exp=-1; 
....................          res=x*2; 
....................       } 
....................       else 
....................       { 
....................          *exp=0; 
....................           res=x; 
....................       } 
....................    } 
....................    if(sign) 
....................    { 
....................       res=-res; 
....................    } 
....................    return res; 
.................... } 
....................  
.................... // Overloaded function frexp() for data type - Float64 
.................... float64 frexp(float64 x, signed int8 *exp) 
.................... { 
....................    float64 res; 
....................    int1 sign = 0; 
....................    if(x == 0.0) 
....................    { 
....................       *exp=0; 
....................       return (0.0); 
....................    } 
....................    if(x < 0.0) 
....................    { 
....................      x=-x; 
....................      sign=1; 
....................    } 
....................    if (x > 1.0) 
....................    { 
....................       *exp=(ceil(log10(x)*LOG2_INV)); 
....................       res=x/(pow(2, *exp)); 
....................       if (res == 1) 
....................       { 
....................          *exp=*exp+1; 
....................           res=.5; 
....................       } 
....................    } 
....................    else 
....................    { 
....................       if(x < 0.5) 
....................       { 
....................          *exp=-1; 
....................          res=x*2; 
....................       } 
....................       else 
....................       { 
....................          *exp=0; 
....................           res=x; 
....................       } 
....................    } 
....................    if(sign) 
....................    { 
....................       res=-res; 
....................    } 
....................    return res; 
.................... } 
.................... #endif 
....................  
.................... ////////////////////////////////////////////////////////////////////////////// 
.................... //   float ldexp(float x, signed int *exp) 
.................... ////////////////////////////////////////////////////////////////////////////// 
.................... // Description : multiplies a floating point number by an integral power of 2. 
.................... // Returns : returns the value of x times 2 raised to the power exp. 
.................... // Date : N/A 
.................... // 
....................  
.................... float32 ldexp(float32 value, signed int8 exp) 
.................... { 
....................    return (value * pow(2,exp)); 
.................... } 
.................... //Overloaded functions for ldexp() for PCD 
.................... // Overloaded function ldexp() for data type - Float48 
....................  
.................... #if defined(__PCD__) 
.................... float48 ldexp(float48 value, signed int8 exp) 
.................... { 
....................    return (value * pow(2,exp)); 
.................... } 
.................... // Overloaded function ldexp() for data type - Float64 
.................... float64 ldexp(float64 value, signed int8 exp) 
.................... { 
....................    return (value * pow(2,exp)); 
.................... } 
.................... #endif 
....................  
.................... #endif 
....................  
....................  
.................... #include <tv_03_32led_don.c>  
.................... //xxxxxxxxxxxxxxxxxxxxxxxxxxxxxxxxxxxxxxxxxxxxxxxxxxxxxxxx 
.................... //NGUYEN DINH PHU SU PHAM KY THUAT TP HCM 
.................... //xxxxxxxxxxxxxxxxxxxxxxxxxxxxxxxxxxxxxxxxxxxxxxxxxxxxxxxx 
.................... //xxxxxxxxxxxxxxxxxxxxxxxxxxxxxxxxxxxxxxxxxxxxxxxxxxxxxxxx 
.................... //ham 301: chuong trinh con xuat 4 byte ra 32 led don 
.................... //xxxxxxxxxxxxxxxxxxxxxxxxxxxxxxxxxxxxxxxxxxxxxxxxxxxxxxxx 
.................... void xuat_32led_don_4byte(usi8 bld3,bld2,bld1,bld0) 
.................... {      
....................    xuat_1byte(bld3);  xuat_1byte(bld2); 
*
06C2:  MOVFF  44A,456
06C6:  RCALL  0186
06C8:  MOVFF  44B,456
06CC:  RCALL  0186
....................    xuat_1byte(bld1);  xuat_1byte(bld0);             
06CE:  MOVFF  44C,456
06D2:  RCALL  0186
06D4:  MOVFF  44D,456
06D8:  RCALL  0186
....................                       
....................    output_high(rck_32led);     
06DA:  BCF    F95.4
06DC:  BSF    F8C.4
....................    output_low(rck_32led);       
06DE:  BCF    F95.4
06E0:  BCF    F8C.4
06E2:  GOTO   0708 (RETURN)
.................... } 
.................... //xxxxxxxxxxxxxxxxxxxxxxxxxxxxxxxxxxxxxxxxxxxxxxxxxxxxxxxx 
.................... //ham 302: chuong trinh con xuat 2 word 16 bitra 32 led don 
.................... //xxxxxxxxxxxxxxxxxxxxxxxxxxxxxxxxxxxxxxxxxxxxxxxxxxxxxxxx 
.................... void xuat_32led_don_2word(usi16 wld1,usi16 wld0) 
.................... {      
....................    unsigned int8  b3,b2,b1,b0; 
....................    b3 = wld1>>8;  b2 = wld1;  
06E6:  MOVFF  443,446
06EA:  MOVFF  442,447
....................    b1 = wld0>>8;  b0 = wld0; 
06EE:  MOVFF  445,448
06F2:  MOVFF  444,449
....................    xuat_32led_don_4byte(b3,b2,b1,b0); 
06F6:  MOVFF  446,44A
06FA:  MOVFF  447,44B
06FE:  MOVFF  448,44C
0702:  MOVFF  449,44D
0706:  BRA    06C2
0708:  RETURN 0
.................... } 
.................... //xxxxxxxxxxxxxxxxxxxxxxxxxxxxxxxxxxxxxxxxxxxxxxxxxxxxxxxx 
.................... //ham 303: chuong trinh con xuat 1 double word ra 32 led don 
.................... //xxxxxxxxxxxxxxxxxxxxxxxxxxxxxxxxxxxxxxxxxxxxxxxxxxxxxxxx 
.................... void xuat_32led_don_1dw(usi32 dwld) 
.................... {      
....................    unsigned int16  wd1,wd0; 
....................    wd1 = dwld>>16;  wd0 = dwld; 
....................    xuat_32led_don_2word(wd1,wd0); 
.................... } 
.................... //xxxxxxxxxxxxxxxxxxxxxxxxxxxxxxxxxxxxxxxxxxxxxxxxxxxxxxxx 
.................... //ham 304: chuong trinh con xuat 1 byte ra 32 led don 
.................... //xxxxxxxxxxxxxxxxxxxxxxxxxxxxxxxxxxxxxxxxxxxxxxxxxxxxxxxx 
.................... void xuat_32led_don_1byte(usi8 b0) 
.................... {      
....................    xuat_32led_don_4byte(0,0,0,b0); 
.................... }   
....................  
.................... #include <tv_04_4led_7doan.c>  
.................... //xxxxxxxxxxxxxxxxxxxxxxxxxxxxxxxxxxxxxxxxxxxxxxxxxxxxxxxx 
.................... //NGUYEN DINH PHU SU PHAM KY THUAT TP HCM 
.................... //xxxxxxxxxxxxxxxxxxxxxxxxxxxxxxxxxxxxxxxxxxxxxxxxxxxxxxxx 
....................  
.................... //xxxxxxxxxxxxxxxxxxxxxxxxxxxxxxxxxxxxxxxxxxxxxxxxxxxxxxxx 
.................... //khai bao mang va dnh nghia cac bien cho module 4led 7 doan 
.................... //xxxxxxxxxxxxxxxxxxxxxxxxxxxxxxxxxxxxxxxxxxxxxxxxxxxxxxxx 
.................... unsigned int8 dl_4l7d[4]= {0xff,0xff,0xff,0xff}; 
.................... #define ngan4  dl_4l7d[0] 
.................... #define tram4  dl_4l7d[1] 
.................... #define chuc4  dl_4l7d[2] 
.................... #define donvi4 dl_4l7d[3]             
....................                                            
.................... #define l7d_43 dl_4l7d[0] 
.................... #define l7d_42 dl_4l7d[1] 
.................... #define l7d_41 dl_4l7d[2] 
.................... #define l7d_40 dl_4l7d[3]             
.................... //xxxxxxxxxxxxxxxxxxxxxxxxxxxxxxxxxxxxxxxxxxxxxxxxxxxxxxxx 
.................... //ham 401: xuat 4 byte ra 4 led 7 doan 
.................... //xxxxxxxxxxxxxxxxxxxxxxxxxxxxxxxxxxxxxxxxxxxxxxxxxxxxxxxx 
.................... void xuat_4led_7doan_4so() 
.................... {                                                                   
....................    xuat_1byte(dl_4l7d[3]);    
*
0A0A:  MOVFF  0B,456
0A0E:  CALL   0186
....................    xuat_1byte(dl_4l7d[2]); 
0A12:  MOVFF  0A,456
0A16:  CALL   0186
....................    xuat_1byte(dl_4l7d[1]);    
0A1A:  MOVFF  09,456
0A1E:  CALL   0186
....................    xuat_1byte(dl_4l7d[0]); 
0A22:  MOVFF  08,456
0A26:  CALL   0186
....................                                     
....................    output_low(rck_4l7d);    
0A2A:  BCF    F95.6
0A2C:  BCF    F8C.6
....................    output_high(rck_4l7d); 
0A2E:  BCF    F95.6
0A30:  BSF    F8C.6
0A32:  GOTO   0A5C (RETURN)
.................... }                                                   
.................... //xxxxxxxxxxxxxxxxxxxxxxxxxxxxxxxxxxxxxxxxxxxxxxxxxxxxxxxx 
.................... //ham 402: giai ma so x 2 so, luu o led thu y, tuy chon xoa vn 
.................... //xxxxxxxxxxxxxxxxxxxxxxxxxxxxxxxxxxxxxxxxxxxxxxxxxxxxxxxx 
.................... void md4l7d_giaima_2so_vitri_vn(usi8 x,y, int1 xvn) 
.................... {                                         
....................    dl_4l7d[y]   = ma7doan[x%10];        
*
0968:  CLRF   03
096A:  MOVLB  4
096C:  MOVF   x43,W
096E:  ADDLW  08
0970:  MOVWF  FE9
0972:  MOVLW  00
0974:  ADDWFC 03,W
0976:  MOVWF  FEA
0978:  MOVFF  442,448
097C:  MOVLW  0A
097E:  MOVWF  x49
0980:  MOVLB  0
0982:  RCALL  093C
0984:  CLRF   03
0986:  MOVF   00,W
0988:  MOVFF  FF2,447
098C:  BCF    FF2.7
098E:  CALL   0004
0992:  MOVLB  4
0994:  BTFSC  x47.7
0996:  BSF    FF2.7
0998:  MOVWF  FEF
....................    dl_4l7d[y-1] = ma7doan[x/10%10];               
099A:  MOVLW  01
099C:  SUBWF  x43,W
099E:  CLRF   03
09A0:  ADDLW  08
09A2:  MOVWF  FE9
09A4:  MOVLW  00
09A6:  ADDWFC 03,W
09A8:  MOVWF  FEA
09AA:  MOVFF  442,448
09AE:  MOVLW  0A
09B0:  MOVWF  x49
09B2:  MOVLB  0
09B4:  RCALL  093C
09B6:  MOVFF  01,448
09BA:  MOVLW  0A
09BC:  MOVLB  4
09BE:  MOVWF  x49
09C0:  MOVLB  0
09C2:  RCALL  093C
09C4:  CLRF   03
09C6:  MOVF   00,W
09C8:  MOVFF  FF2,447
09CC:  BCF    FF2.7
09CE:  CALL   0004
09D2:  MOVLB  4
09D4:  BTFSC  x47.7
09D6:  BSF    FF2.7
09D8:  MOVWF  FEF
....................    if(xvn==true)                                                    
09DA:  DECFSZ x44,W
09DC:  BRA    0A06
....................    {                                                            
....................       if(dl_4l7d[y-1]==maso0) dl_4l7d[y-1]=0xff;                                  
09DE:  MOVLW  01
09E0:  SUBWF  x43,W
09E2:  CLRF   03
09E4:  ADDLW  08
09E6:  MOVWF  FE9
09E8:  MOVLW  00
09EA:  ADDWFC 03,W
09EC:  MOVWF  FEA
09EE:  MOVF   FEF,W
09F0:  SUBLW  C0
09F2:  BNZ   0A06
09F4:  MOVLW  01
09F6:  SUBWF  x43,W
09F8:  CLRF   03
09FA:  ADDLW  08
09FC:  MOVWF  FE9
09FE:  MOVLW  00
0A00:  ADDWFC 03,W
0A02:  MOVWF  FEA
0A04:  SETF   FEF
....................    }                                                       
0A06:  MOVLB  0
0A08:  RETURN 0
.................... }  
.................... //xxxxxxxxxxxxxxxxxxxxxxxxxxxxxxxxxxxxxxxxxxxxxxxxxxxxxxxx 
.................... //ham 403: giai ma so x 3 so, luu o led thu y, tuy chon xoa vn 
.................... //xxxxxxxxxxxxxxxxxxxxxxxxxxxxxxxxxxxxxxxxxxxxxxxxxxxxxxxx   
.................... void md4l7d_giaima_3so_vitri_vn(usi16 x, usi8 y, int1 xvn) 
.................... {                                         
....................    dl_4l7d[y]   = ma7doan[x%10];        
....................    dl_4l7d[y-1] = ma7doan[x/10%10]; 
....................    dl_4l7d[y-2] = ma7doan[x/100%10]; 
....................    if(xvn==true)          
....................    { 
....................       if(dl_4l7d[y-2]==maso0) 
....................       {                                
....................          dl_4l7d[y-2]=0xff; 
....................          if(dl_4l7d[y-1]==maso0) dl_4l7d[y-1]=0xff; 
....................       } 
....................    }             
.................... } 
.................... //xxxxxxxxxxxxxxxxxxxxxxxxxxxxxxxxxxxxxxxxxxxxxxxxxxxxxxxx 
.................... //ham 404: giai ma so x 4 so, luu o led thu y, tuy chon xoa vn 
.................... //xxxxxxxxxxxxxxxxxxxxxxxxxxxxxxxxxxxxxxxxxxxxxxxxxxxxxxxx 
.................... void md4l7d_giaima_4so_vitri_vn(usi16 x, usi8 y, int1 xvn) 
.................... {                                         
....................    dl_4l7d[y]   = ma7doan[x%10];        
....................    dl_4l7d[y-1] = ma7doan[x/10%10]; 
....................    dl_4l7d[y-2] = ma7doan[x/100%10]; 
....................    dl_4l7d[y-3] = ma7doan[x/1000%10]; 
....................    if(xvn==true)                                   
....................    { 
....................       if(dl_4l7d[y-3]==maso0)  
....................       {                        
....................          dl_4l7d[y-3]=0xff; 
....................          if(dl_4l7d[y-2]==maso0)  
....................          { 
....................             dl_4l7d[y-2]=0xff;  
....................             if(dl_4l7d[y-1]==maso0) dl_4l7d[y-1]=0xff;    
....................          } 
....................       }                         
....................    }           
.................... }   
.................... //xxxxxxxxxxxxxxxxxxxxxxxxxxxxxxxxxxxxxxxxxxxxxxxxxxxxxxxx 
.................... //ham 405: giai ma so x 2 so, luu o led thu y, tuy chon xoa vn 
.................... //xxxxxxxxxxxxxxxxxxxxxxxxxxxxxxxxxxxxxxxxxxxxxxxxxxxxxxxx 
.................... void md4l7d_gma_so_bcd_vitri_vn(usi8 x,y, int1 xvn) 
.................... {                                         
....................    dl_4l7d[y]   = ma7doan[x%16];        
....................    dl_4l7d[y-1] = ma7doan[x/16];               
....................    if(xvn==true)                                                    
....................    {                                                            
....................       if(dl_4l7d[y-1]==maso0) dl_4l7d[y-1]=0xff;                                  
....................    }                                                       
.................... }  
.................... //xxxxxxxxxxxxxxxxxxxxxxxxxxxxxxxxxxxxxxxxxxxxxxxxxxxxxxxx 
.................... //ham 406: hien thi du lieu 2byte tren 4 led 7 doan 
.................... //xxxxxxxxxxxxxxxxxxxxxxxxxxxxxxxxxxxxxxxxxxxxxxxxxxxxxxxx 
.................... void xuat_4led_7doan_2so_4led (unsigned int8 bh,bl) 
.................... {          
....................    dl_4l7d[0] = ma7doan[bh/10%10]; 
....................    dl_4l7d[1] = ma7doan[bh%10];   
....................    dl_4l7d[2] = ma7doan[bl/10%10]; 
....................    dl_4l7d[3] = ma7doan[bl%10];  
....................    xuat_4led_7doan_4so(); 
.................... }                                  
....................  
.................... #include <tv_05_8led_7doan_quet.c>  
.................... //xxxxxxxxxxxxxxxxxxxxxxxxxxxxxxxxxxxxxxxxxxxxxxxxxxxxxxxx 
.................... //NGUYEN DINH PHU SU PHAM KY THUAT TP HCM 
.................... //xxxxxxxxxxxxxxxxxxxxxxxxxxxxxxxxxxxxxxxxxxxxxxxxxxxxxxxx 
.................... //xxxxxxxxxxxxxxxxxxxxxxxxxxxxxxxxxxxxxxxxxxxxxxxxxxxxxxxx 
.................... //ham 501: hien thi led theo thu tu 
.................... //xxxxxxxxxxxxxxxxxxxxxxxxxxxxxxxxxxxxxxxxxxxxxxxxxxxxxxxx 
.................... const unsigned int8 ma_quet[9]=  
....................    {0x7f,0xbf,0xdf,0xef,0xf7,0xfb,0xfd,0xfe,0xff};    
....................  
.................... void xuat_8led_7doan_quet(usi8 ttq,mht) 
.................... {                                                        
....................    xuat_1byte(~(ma_quet[ttq]));    
....................    xuat_1byte(~mht); 
....................  
....................    output_high(rck_8l7dq);  
....................    output_low(rck_8l7dq); 
.................... }                        
.................... //xxxxxxxxxxxxxxxxxxxxxxxxxxxxxxxxxxxxxxxxxxxxxxxxxxxxxxxx 
.................... //ham 502: xuat 2 byte ra tat 8 led quet 
.................... //xxxxxxxxxxxxxxxxxxxxxxxxxxxxxxxxxxxxxxxxxxxxxxxxxxxxxxxx 
.................... void tat_8led_7doan_quet() 
.................... { 
....................    xuat_8led_7doan_quet(8,0xff); 
.................... } 
.................... //xxxxxxxxxxxxxxxxxxxxxxxxxxxxxxxxxxxxxxxxxxxxxxxxxxxxxxxx 
.................... //ham 503: hien thi 8 so tren 8 led quet - khong kiem tra 
.................... //xxxxxxxxxxxxxxxxxxxxxxxxxxxxxxxxxxxxxxxxxxxxxxxxxxxxxxxx 
.................... unsigned int8 dl_8l7dq[8]={0xff,0xff,0xff,0xff,0xff,0xff,0xff,0xff}; 
....................                                                                 
.................... void hien_thi_8led_7doan_quet() 
.................... {      
....................    unsigned int8 ttl=0;                                       
....................    for(ttl=0;ttl<8;ttl++)          
....................    {              
....................       xuat_8led_7doan_quet(ttl,dl_8l7dq[ttl]); 
....................       delay_ms(1);   
....................       tat_8led_7doan_quet();                              
....................    } 
.................... }                                              
.................... //xxxxxxxxxxxxxxxxxxxxxxxxxxxxxxxxxxxxxxxxxxxxxxxxxxxxxxxx 
.................... //ham 504: giai ma 2 so x, vi tri y, tuy chon xoa vn 
.................... //xxxxxxxxxxxxxxxxxxxxxxxxxxxxxxxxxxxxxxxxxxxxxxxxxxxxxxxx 
.................... void md8l7d_gma_2so_vitri_vn(usi8 x,y,int1 xvn) 
.................... {                                         
....................    dl_8l7dq[y]   = ma7doan[x%10];        
....................    dl_8l7dq[y+1] = ma7doan[x/10%10];               
....................    if(xvn==true)                                                    
....................    {                                                            
....................       if(dl_8l7dq[y+1]==maso0) dl_8l7dq[y+1]=0xff;                                  
....................    }                                                       
.................... }   
.................... //xxxxxxxxxxxxxxxxxxxxxxxxxxxxxxxxxxxxxxxxxxxxxxxxxxxxxxxx 
.................... //ham 505: giai ma 3 so x, vi tri y, tuy chon xoa vn 
.................... //xxxxxxxxxxxxxxxxxxxxxxxxxxxxxxxxxxxxxxxxxxxxxxxxxxxxxxxx 
.................... void md8l7d_gma_3so_vitri_vn(usi16 x,usi8 y,int1 xvn) 
.................... {                                         
....................    dl_8l7dq[y]   = ma7doan[x%10];        
....................    dl_8l7dq[y+1] = ma7doan[x/10%10]; 
....................    dl_8l7dq[y+2] = ma7doan[x/100%10]; 
....................    if(xvn==true)          
....................    {        
....................       if(dl_8l7dq[y+2]==maso0) 
....................       {                                
....................          dl_8l7dq[y+2]=0xff; 
....................          if(dl_8l7dq[y+1]==maso0) dl_8l7dq[y+1]=0xff; 
....................       } 
....................    }             
.................... }  
.................... //xxxxxxxxxxxxxxxxxxxxxxxxxxxxxxxxxxxxxxxxxxxxxxxxxxxxxxxx 
.................... //ham 506: giai ma 4 so x, vi tri y, tuy chon xoa vn 
.................... //xxxxxxxxxxxxxxxxxxxxxxxxxxxxxxxxxxxxxxxxxxxxxxxxxxxxxxxx 
.................... void md8l7d_gma_4so_vitri_vn(usi16 x,usi8 y,int1 xvn) 
.................... {                                         
....................    dl_8l7dq[y]   = ma7doan[x%10];        
....................    dl_8l7dq[y+1] = ma7doan[x/10%10]; 
....................    dl_8l7dq[y+2] = ma7doan[x/100%10]; 
....................    dl_8l7dq[y+3] = ma7doan[x/1000%10]; 
....................    if(xvn==true)                                   
....................    { 
....................       if(dl_8l7dq[y+3]==maso0)  
....................       { 
....................          dl_8l7dq[y+3]=0xff; 
....................          if(dl_8l7dq[y+2]==maso0)  
....................          { 
....................             dl_8l7dq[y+2]=0xff;  
....................             if(dl_8l7dq[y+1]==maso0) dl_8l7dq[y+1]=0xff;    
....................          } 
....................       }                         
....................    }           
.................... }    
.................... //xxxxxxxxxxxxxxxxxxxxxxxxxxxxxxxxxxxxxxxxxxxxxxxxxxxxxxxx 
.................... //ham 507: giai ma 2 so bcd x, tai vi tri y, xoa vn: y/n 
.................... //xxxxxxxxxxxxxxxxxxxxxxxxxxxxxxxxxxxxxxxxxxxxxxxxxxxxxxxx 
.................... void md8l7d_gma_so_bcd_vitri_vn(usi8 x,y,int1 xvn) 
.................... {                                         
....................    dl_8l7dq[y]   = ma7doan[x%16];        
....................    dl_8l7dq[y+1] = ma7doan[x/16];               
....................    if(xvn==true)                                                    
....................    {                                                            
....................       if(dl_8l7dq[y+1]==maso0) dl_8l7dq[y+1]=0xff;                                  
....................    }    
.................... }                
.................... //xxxxxxxxxxxxxxxxxxxxxxxxxxxxxxxxxxxxxxxxxxxxxxxxxxxxxxxx 
.................... //ham 508: hien thi 8 so tren 8 led quet voi so lan dl 
.................... //xxxxxxxxxxxxxxxxxxxxxxxxxxxxxxxxxxxxxxxxxxxxxxxxxxxxxxxx 
.................... void delay_quet_8led(unsigned int16 dl) 
.................... {                                 
....................    unsigned int16 i;            
....................    for(i=0;i<dl;i++) 
....................    hien_thi_8led_7doan_quet();         
.................... }  
....................  
.................... #include <tv_05_i2c_ds13_pcf.c> 
.................... //xxxxxxxxxxxxxxxxxxxxxxxxxxxxxxxxxxxxxxxxxxxxxxxxxxxxxxxx 
.................... //NGUYEN DINH PHU SU PHAM KY THUAT TP HCM 
.................... //xxxxxxxxxxxxxxxxxxxxxxxxxxxxxxxxxxxxxxxxxxxxxxxxxxxxxxxx 
.................... //xxxxxxxxxxxxxxxxxxxxxxxxxxxxxxxxxxxxxxxxxxxxxxxxxxxxxxxx 
.................... //dinh nghia dia chi ghi va dia chi doc ds1307 
.................... //xxxxxxxxxxxxxxxxxxxxxxxxxxxxxxxxxxxxxxxxxxxxxxxxxxxxxxxx                     
.................... #define ds13_addr_wr 0xd0 
.................... #define ds13_addr_rd 0xd1 
....................  
.................... //xxxxxxxxxxxxxxxxxxxxxxxxxxxxxxxxxxxxxxxxxxxxxxxxxxxxxxxx   
.................... //khai bao 2 mang:  
.................... //mang ghi: giay-phut-gio-thu-ngay-thang-nam-madk_msds   
.................... //mang doc: giay-phut-gio-thu-ngay-thang-nam-madk_msds   
.................... //xxxxxxxxxxxxxxxxxxxxxxxxxxxxxxxxxxxxxxxxxxxxxxxxxxxxxxxx       
.................... usi8 time_w[9]={0x30,0x33,0x15,0x03,0x16,0x02,0x21,0x90,0x92};   
.................... usi8 time_r[9]={0x30,0x30,0x10,0x08,0x20,0x02,0x20,0x90,0x96}; 
.................... #define giay_ds  time_r[0]               
.................... #define phut_ds  time_r[1]                   
.................... #define gio_ds   time_r[2] 
.................... #define thu_ds   time_r[3] 
.................... #define ngay_ds  time_r[4] 
.................... #define thang_ds time_r[5]                   
.................... #define nam_ds   time_r[6] 
....................  
.................... #define ma_qd   time_w[8]  
.................... #define ma_ds   time_r[8]                                        
.................... //xxxxxxxxxxxxxxxxxxxxxxxxxxxxxxxxxxxxxxxxxxxxxxxxxxxxxxxx   
.................... //cap nhat time: giay-phut-gio-thu-ngay-thang-nam-madk_msds   
.................... //xxxxxxxxxxxxxxxxxxxxxxxxxxxxxxxxxxxxxxxxxxxxxxxxxxxxxxxx  
.................... void ds1307_cap_nhat_time(int1 sel)                  
.................... {          
....................    usi8 i;    
....................    i2c_start(); 
....................    i2c_write(ds13_addr_wr);         
....................    i2c_write(0x00);     
....................    for(i=0;i<9;i++)                           
....................    {   
....................       if(sel)  i2c_write(time_w[i]); 
....................       else     i2c_write(time_r[i]); 
....................    }                                  
....................    i2c_stop();         
.................... }                       
.................... //xxxxxxxxxxxxxxxxxxxxxxxxxxxxxxxxxxxxxxxxxxxxxxxxxxxxxxxx   
.................... //doc thoi gian    
.................... //xxxxxxxxxxxxxxxxxxxxxxxxxxxxxxxxxxxxxxxxxxxxxxxxxxxxxxxx                              
.................... void ds1307_doc_time(usi8 j)      
.................... {    
....................    usi8 i;  
....................    i2c_start(); 
....................    i2c_write(ds13_addr_wr); 
....................    i2c_write(0x00);                      
....................    i2c_start();                 
....................                  
....................    i2c_write(ds13_addr_rd);                               
....................    for(i=0;i<j;i++) time_r[i]=i2c_read();   
....................                                   
....................    i = i2c_read(0); //not ack, don't care i   
....................    i2c_stop(); 
.................... }                                                                        
.................... //xxxxxxxxxxxxxxxxxxxxxxxxxxxxxxxxxxxxxxxxxxxxxxxxxxxxxxxx   
.................... //kiem tra ma da luu: sai thi cap nhat, dung thi thoat 
.................... //xxxxxxxxxxxxxxxxxxxxxxxxxxxxxxxxxxxxxxxxxxxxxxxxxxxxxxxx            
.................... void ds1307_kiem_tra_ma()                                
.................... {                                               
....................    ds1307_doc_time(9);           
....................    if(ma_qd!=ma_ds)    
....................    { 
....................       ds1307_cap_nhat_time(1); 
....................    } 
.................... }  
.................... void ds1307_luu_vao_ds(usi8 dcdt,dt)                  
.................... {            
....................    i2c_start(); 
....................    i2c_write(ds13_addr_wr);         
....................    i2c_write(dcdt);     
....................    i2c_write(dt); 
....................    i2c_stop();         
.................... } 
....................  
.................... //xxxxxxxxxxxxxxxxxxxxxxxxxxxxxxxxxxxxxxxxxxxxxxxxxxxxxxxx    
.................... //xxxxxxxxxxxxxxxxxxxxxxxxxxxxxxxxxxxxxxxxxxxxxxxxxxxxxxxx 
.................... //thu vien cua pcf8591: 4adc:2lm35, joystick, 1dac: led 
.................... //step size bang 5 
.................... //xxxxxxxxxxxxxxxxxxxxxxxxxxxxxxxxxxxxxxxxxxxxxxxxxxxxxxxx    
.................... //xxxxxxxxxxxxxxxxxxxxxxxxxxxxxxxxxxxxxxxxxxxxxxxxxxxxxxxx    
.................... #define  pcf_addr_wr  0x90                     
.................... #define  pcf_addr_rd  0x91 
....................                                                     
.................... #define  pcf_chan0 0x40 
.................... #define  pcf_chan1 0x41 
.................... #define  pcf_chan2 0x42 
.................... #define  pcf_chan3 0x43 
.................... //xxxxxxxxxxxxxxxxxxxxxxxxxxxxxxxxxxxxxxxxxxxxxxxxxxxxxxxx   
.................... //ham thiet lap kenh 
.................... //xxxxxxxxxxxxxxxxxxxxxxxxxxxxxxxxxxxxxxxxxxxxxxxxxxxxxxxx                                     
.................... void pcf_channel(usi8 chan) 
.................... {                                   
....................    i2c_start(); 
....................    i2c_write(pcf_addr_wr); 
....................    i2c_write(chan);       
....................    i2c_stop(); 
.................... } 
.................... //xxxxxxxxxxxxxxxxxxxxxxxxxxxxxxxxxxxxxxxxxxxxxxxxxxxxxxxx   
.................... //ham vua chon kenh, vua xuat du lieu ra DAC 
.................... //xxxxxxxxxxxxxxxxxxxxxxxxxxxxxxxxxxxxxxxxxxxxxxxxxxxxxxxx  
.................... void pcf_xuat_dac(usi8 dac_out) 
.................... { 
....................    i2c_start();                      
....................    i2c_write(pcf_addr_wr); 
....................    i2c_write(pcf_chan0); 
....................    i2c_write(dac_out); 
....................    i2c_stop();              
.................... }                     
.................... //xxxxxxxxxxxxxxxxxxxxxxxxxxxxxxxxxxxxxxxxxxxxxxxxxxxxxxxx   
.................... //ham thiet lap kenh va doc ket qua cua lan truoc  
.................... //xxxxxxxxxxxxxxxxxxxxxxxxxxxxxxxxxxxxxxxxxxxxxxxxxxxxxxxx  
.................... usi8 pcf_doc_adc(usi8 ch) 
.................... {     
....................    usi8 kq;  
....................    kq=0;   
....................    pcf_channel(ch); 
....................    i2c_start();                            
....................    i2c_write(pcf_addr_rd);         
....................    kq= i2c_read(0); 
....................    i2c_stop();        
....................    return kq; 
.................... } 
.................... //xxxxxxxxxxxxxxxxxxxxxxxxxxxxxxxxxxxxxxxxxxxxxxxxxxxxxxxx   
.................... //ham doc kenh, so lan  
.................... //xxxxxxxxxxxxxxxxxxxxxxxxxxxxxxxxxxxxxxxxxxxxxxxxxxxxxxxx  
.................... usi8 pcf_doc_chan(usi8 chan, usi8 solan)                                      
.................... {  
....................    unsigned int16 pcf; 
....................    usi8 i;            
....................    pcf = 0;      
....................    for(i=0;i<solan;i++)             
....................    { 
....................       delay_us(30);                               
....................       pcf=pcf + pcf_doc_adc(chan);               
....................    }                                               
....................    pcf = pcf/solan;    
....................    return (pcf%256); 
.................... } 
....................  
....................                                                                  
....................  
.................... #include <tv_06_lcd_glcd.c>  //xuat du lieu                                             
.................... //xxxxxxxxxxxxxxxxxxxxxxxxxxxxxxxxxxxxxxxxxxxxxxxxxxxxxxxx 
.................... //NGUYEN DINH PHU SU PHAM KY THUAT TP HCM 
.................... //xxxxxxxxxxxxxxxxxxxxxxxxxxxxxxxxxxxxxxxxxxxxxxxxxxxxxxxx 
....................  
.................... //xxxxxxxxxxxxxxxxxxxxxxxxxxxxxxxxxxxxxxxxxxxxxxxxxxxxxxxx     
.................... //khai bao: mang 4 byte ra glcd va lcd 
.................... //xxxxxxxxxxxxxxxxxxxxxxxxxxxxxxxxxxxxxxxxxxxxxxxxxxxxxxxx   
.................... unsigned int8 g_lcd[4]={0,0,0,0};  
.................... #define glcd_ct g_lcd[0] 
.................... #define glcd_dt g_lcd[1] 
.................... #define lcd_ct  g_lcd[2]      
.................... #define lcd_dt  g_lcd[3] 
.................... //xxxxxxxxxxxxxxxxxxxxxxxxxxxxxxxxxxxxxxxxxxxxxxxxxxxxxxxx     
.................... //ham 601: xuat du lieu 4 byte ra glcd va lcd 
.................... //xxxxxxxxxxxxxxxxxxxxxxxxxxxxxxxxxxxxxxxxxxxxxxxxxxxxxxxx  
.................... void xuat_glcd_lcd() 
.................... {                                                   
....................    xuat_1byte(glcd_ct); xuat_1byte(glcd_dt); 
*
0270:  MOVFF  26,456
0274:  RCALL  0186
0276:  MOVFF  27,456
027A:  RCALL  0186
....................    xuat_1byte(lcd_ct);  xuat_1byte(lcd_dt);        
027C:  MOVFF  28,456
0280:  RCALL  0186
0282:  MOVFF  29,456
0286:  RCALL  0186
....................           
....................    output_high(rck_lcd);      
0288:  BCF    F95.2
028A:  BSF    F8C.2
....................    output_low(rck_lcd);                           
028C:  BCF    F95.2
028E:  BCF    F8C.2
0290:  RETURN 0
.................... } 
.................... //xxxxxxxxxxxxxxxxxxxxxxxxxxxxxxxxxxxxxxxxxxxxxxxxxxxxxxxx     
.................... //ham 602: ham xuat 2 byte ra lcd  
.................... //xxxxxxxxxxxxxxxxxxxxxxxxxxxxxxxxxxxxxxxxxxxxxxxxxxxxxxxx  
.................... void xuat_lcd(usi8 lcd_ctr,lcd_dta) 
.................... {      
....................    lcd_ct = ~lcd_ctr;        
0292:  MOVLB  4
0294:  MOVFF  454,28
0298:  COMF   28,F
....................    lcd_dt = ~lcd_dta;       
029A:  MOVFF  455,29
029E:  COMF   29,F
....................    xuat_glcd_lcd(); 
02A0:  MOVLB  0
02A2:  RCALL  0270
02A4:  RETURN 0
.................... } 
.................... //xxxxxxxxxxxxxxxxxxxxxxxxxxxxxxxxxxxxxxxxxxxxxxxxxxxxxxxx     
.................... //ham 603: ham xuat 2 byte ra glcd  
.................... //xxxxxxxxxxxxxxxxxxxxxxxxxxxxxxxxxxxxxxxxxxxxxxxxxxxxxxxx  
.................... void xuat_glcd(usi8 glcd_ctr,glcd_dta) 
.................... {      
....................    glcd_ct = ~glcd_ctr;      
*
058A:  MOVLB  4
058C:  MOVFF  448,26
0590:  COMF   26,F
....................    glcd_dt = ~glcd_dta;      
0592:  MOVFF  449,27
0596:  COMF   27,F
....................    xuat_glcd_lcd(); 
0598:  MOVLB  0
059A:  RCALL  0270
059C:  RETURN 0
.................... } 
....................  
.................... #include <tv_06_lcd.c>       //cac ham lcd   
.................... //xxxxxxxxxxxxxxxxxxxxxxxxxxxxxxxxxxxxxxxxxxxxxxxxxxxxxxxx 
.................... //NGUYEN DINH PHU SU PHAM KY THUAT TP HCM 
.................... //xxxxxxxxxxxxxxxxxxxxxxxxxxxxxxxxxxxxxxxxxxxxxxxxxxxxxxxx 
....................  
.................... //xxxxxxxxxxxxxxxxxxxxxxxxxxxxxxxxxxxxxxxxxxxxxxxxxxxxxxxx 
.................... //dinh nghia bien dieu khien LCD va cac bit cua bien 
.................... //xxxxxxxxxxxxxxxxxxxxxxxxxxxxxxxxxxxxxxxxxxxxxxxxxxxxxxxx   
.................... unsigned int8 lcd_ctrl = 0xff;                      
.................... #bit lcd_p  = lcd_ctrl.3                                        
.................... #bit lcd_rs = lcd_ctrl.2 
.................... #bit lcd_rw = lcd_ctrl.1                                           
.................... #bit lcd_e  = lcd_ctrl.0              
....................                                                             
.................... //xxxxxxxxxxxxxxxxxxxxxxxxxxxxxxxxxxxxxxxxxxxxxxxxxxxxxxxx 
.................... //Dinh nghia cac lenh dieu khien cua LCD 
.................... //xxxxxxxxxxxxxxxxxxxxxxxxxxxxxxxxxxxxxxxxxxxxxxxxxxxxxxxx   
.................... #define lcd_clear_display      0x01     
.................... #define lcd_cursor_home        0x02                                                                                  
.................... //Lenh function set co nhieu bit lua chon 
.................... #define lcd_fs_function_set    0x20   //constant  
.................... #define fs_8bit                0x10                 
.................... #define fs_2line               0x08 
.................... #define fs_5x10                0x04 
.................... //Lenh dieu khien hien thi  
.................... #define lcd_dc_display_control 0x08  //constant 
.................... #define dc_display_on          0x04   
.................... #define dc_cursor_on           0x02 
.................... #define dc_blink_on            0x01                                                           
.................... //Lenh display entry mode */   
.................... #define lcd_em_entry_mode      0x04  //constant  
.................... #define em_shift_inc           0x01                       
.................... #define em_left                0x02                                                 
....................  
.................... /* Flags for display/cursor shift */                            
.................... #define lcd_cd_cursor_display  0x10   //constant               
.................... #define cd_display_move        0x08 
.................... #define cd_move_right          0x04 
....................  
.................... #define lcd_shift_left         0x18  
.................... #define lcd_shift_lright       0x1C  
....................  
.................... #define lcd_ddram_addr         0x80 
.................... #define lcd_cgram_addr         0x40 
.................... //xxxxxxxxxxxxxxxxxxxxxxxxxxxxxxxxxxxxxxxxxxxxxxxxxxxxxxxx   
.................... void lcd_goto_xy(usi8 x,usi8 y); 
.................... void lcd_xuat_8bit(int8 db); 
.................... void lcd_command(int8 db); 
.................... void lcd_data(int8 db); 
.................... void lcd_puts(usi8 x, usi8 y, char* str);                  
.................... void lcd_setup();                                         
.................... //xxxxxxxxxxxxxxxxxxxxxxxxxxxxxxxxxxxxxxxxxxxxxxxxxxxxxxxx   
.................... //ham 604: ham xuat 8bit ra lcd 
.................... //xxxxxxxxxxxxxxxxxxxxxxxxxxxxxxxxxxxxxxxxxxxxxxxxxxxxxxxx   
.................... void lcd_xuat(int8 db)  
.................... {                                                      
....................    lcd_e=1; xuat_lcd(lcd_ctrl,db);    
*
02A6:  BSF    2A.0
02A8:  MOVFF  2A,454
02AC:  MOVFF  453,455
02B0:  RCALL  0292
....................    //delay_us(20);                        
....................    lcd_e=0; xuat_lcd(lcd_ctrl,db);      
02B2:  BCF    2A.0
02B4:  MOVFF  2A,454
02B8:  MOVFF  453,455
02BC:  RCALL  0292
02BE:  RETURN 0
.................... }                                                               
.................... //xxxxxxxxxxxxxxxxxxxxxxxxxxxxxxxxxxxxxxxxxxxxxxxxxxxxxxxx     
.................... //ham 605: ham xuat ma lenh dk lcd 
.................... //xxxxxxxxxxxxxxxxxxxxxxxxxxxxxxxxxxxxxxxxxxxxxxxxxxxxxxxx  
.................... void lcd_command(int8 db)    
.................... { 
....................    lcd_rs = 0; lcd_xuat(db);                                        
02C0:  BCF    2A.2
02C2:  MOVFF  452,453
02C6:  RCALL  02A6
02C8:  RETURN 0
.................... } 
.................... //xxxxxxxxxxxxxxxxxxxxxxxxxxxxxxxxxxxxxxxxxxxxxxxxxxxxxxxx   
.................... //ham 606: ham xuat du lieu ra lcd 
.................... //xxxxxxxxxxxxxxxxxxxxxxxxxxxxxxxxxxxxxxxxxxxxxxxxxxxxxxxx  
.................... void lcd_data(int8 db)        
.................... { 
....................    lcd_rs = 1; lcd_xuat(db); 
*
0370:  BSF    2A.2
0372:  MOVFF  44F,453
0376:  RCALL  02A6
0378:  RETURN 0
.................... }                                         
.................... //xxxxxxxxxxxxxxxxxxxxxxxxxxxxxxxxxxxxxxxxxxxxxxxxxxxxxxxx   
.................... //ham 607: ham khoi tao lcd 
.................... //xxxxxxxxxxxxxxxxxxxxxxxxxxxxxxxxxxxxxxxxxxxxxxxxxxxxxxxx  
.................... void lcd_setup() 
.................... {                      
....................    lcd_e  = 0;   lcd_rw = 0;  
*
02F2:  BCF    2A.0
02F4:  BCF    2A.1
....................    lcd_rs = 1;   lcd_p  = 0; 
02F6:  BSF    2A.2
02F8:  BCF    2A.3
....................    lcd_command(lcd_fs_function_set|fs_8bit|fs_2line);          
02FA:  MOVLW  38
02FC:  MOVLB  4
02FE:  MOVWF  x52
0300:  MOVLB  0
0302:  RCALL  02C0
....................    delay_us(40);   
0304:  MOVLW  42
0306:  MOVWF  00
0308:  DECFSZ 00,F
030A:  BRA    0308
030C:  NOP   
....................    lcd_command(lcd_dc_display_control|dc_display_on);    
030E:  MOVLW  0C
0310:  MOVLB  4
0312:  MOVWF  x52
0314:  MOVLB  0
0316:  RCALL  02C0
....................    delay_us(40); 
0318:  MOVLW  42
031A:  MOVWF  00
031C:  DECFSZ 00,F
031E:  BRA    031C
0320:  NOP   
....................    lcd_command(lcd_clear_display);       
0322:  MOVLW  01
0324:  MOVLB  4
0326:  MOVWF  x52
0328:  MOVLB  0
032A:  RCALL  02C0
....................    delay_ms(2);       
032C:  MOVLW  02
032E:  MOVLB  4
0330:  MOVWF  x45
0332:  MOVLB  0
0334:  RCALL  02CA
....................    lcd_command(lcd_em_entry_mode|em_left);        
0336:  MOVLW  06
0338:  MOVLB  4
033A:  MOVWF  x52
033C:  MOVLB  0
033E:  RCALL  02C0
....................    delay_us(40);                 
0340:  MOVLW  42
0342:  MOVWF  00
0344:  DECFSZ 00,F
0346:  BRA    0344
0348:  NOP   
034A:  GOTO   0D38 (RETURN)
.................... }             
.................... //xxxxxxxxxxxxxxxxxxxxxxxxxxxxxxxxxxxxxxxxxxxxxxxxxxxxxxxx   
.................... //ham 608: di chuyen con tro den toa do x,y 
.................... //xxxxxxxxxxxxxxxxxxxxxxxxxxxxxxxxxxxxxxxxxxxxxxxxxxxxxxxx  
.................... void lcd_goto_xy(usi8 x,usi8 y)  
.................... {                       
....................    const unsigned int8 lcd_vitri[]={0x80,0xc0,0x94,0xd4}; 
....................    lcd_command(lcd_vitri[x]+y);    //delay_us(20); 
034E:  CLRF   03
0350:  MOVLB  4
0352:  MOVF   x4F,W
0354:  MOVFF  FF2,451
0358:  BCF    FF2.7
035A:  MOVLB  0
035C:  RCALL  0024
035E:  MOVLB  4
0360:  BTFSC  x51.7
0362:  BSF    FF2.7
0364:  ADDWF  x50,W
0366:  MOVWF  x51
0368:  MOVWF  x52
036A:  MOVLB  0
036C:  RCALL  02C0
036E:  RETURN 0
.................... }  
.................... //xxxxxxxxxxxxxxxxxxxxxxxxxxxxxxxxxxxxxxxxxxxxxxxxxxxxxxxx            
.................... //ham 609: ham xoa man hinh LCD 
.................... //xxxxxxxxxxxxxxxxxxxxxxxxxxxxxxxxxxxxxxxxxxxxxxxxxxxxxxxx  
.................... void lcd_clear()  
.................... {                       
....................    lcd_command(lcd_clear_display);       
....................    delay_ms(2); 
.................... }  
.................... //xxxxxxxxxxxxxxxxxxxxxxxxxxxxxxxxxxxxxxxxxxxxxxxxxxxxxxxx 
.................... //ham 609: ham mo den backlight lcd  
.................... //xxxxxxxxxxxxxxxxxxxxxxxxxxxxxxxxxxxxxxxxxxxxxxxxxxxxxxxx   
.................... void lcd_back_light_on() 
.................... { 
....................    lcd_p = 0; xuat_lcd(lcd_ctrl,0x00);    
.................... } 
.................... //xxxxxxxxxxxxxxxxxxxxxxxxxxxxxxxxxxxxxxxxxxxxxxxxxxxxxxxx 
.................... //ham 610: tat den backlight lcd  
.................... //xxxxxxxxxxxxxxxxxxxxxxxxxxxxxxxxxxxxxxxxxxxxxxxxxxxxxxxx   
.................... void lcd_back_light_off() 
.................... { 
....................    lcd_p = 1;  xuat_lcd(lcd_ctrl,0x00);     
.................... } 
.................... //xxxxxxxxxxxxxxxxxxxxxxxxxxxxxxxxxxxxxxxxxxxxxxxxxxxxxxxx   
.................... //ham 611: hien thi mang trn lcd tai x,y (hang,cot) 
.................... //xxxxxxxxxxxxxxxxxxxxxxxxxxxxxxxxxxxxxxxxxxxxxxxxxxxxxxxx  
.................... void lcd_puts(usi8 x, usi8 y, unsigned  char* str)  
.................... {                  
....................    while (*str)  
....................    { 
....................       if(y>=20)  
....................       { 
....................          y = 0;   x++; 
....................       } 
....................       if(x>=4) x = 0; 
....................       lcd_goto_xy(x,y);       
....................       if (*str == '\n')  
....................       {                    
....................          x++; 
....................          lcd_goto_xy(x,y); 
....................       }  
....................       else if (*str == '\r')  
....................       { 
....................          lcd_goto_xy(0,y); 
....................       }  
....................       else  
....................          { 
....................             lcd_data(*str); 
....................             y++;                       
....................              
....................          } 
....................       str++; 
....................    } 
.................... } 
.................... //xxxxxxxxxxxxxxxxxxxxxxxxxxxxxxxxxxxxxxxxxxxxxxxxxxxxxxxx   
.................... //mang so to cua LCD 
.................... //xxxxxxxxxxxxxxxxxxxxxxxxxxxxxxxxxxxxxxxxxxxxxxxxxxxxxxxx  
.................... const unsigned int8 lcd_so_to[10][6] ={ 
....................                   0,1,2,4,3,5,    // so 0 
....................                   1,2,32,3,7,3,   // so 1 
....................                   6,6,2,4,3,3,    // so 2 
....................                   6,6,2,3,3,5,    // so 3 
....................                   7,3,7,32,32,7,  // so 4 
....................                   7,6,6,3,3,5,    // so 5                                
....................                   0,6,6,4,3,5,    // so 6 
....................                   1,1,7,32,32,7,  // so 7 
....................                   0,6,2,4,3,5,    // so 8 
....................                   0,6,2,3,3,5};   // so 9 
.................... //xxxxxxxxxxxxxxxxxxxxxxxxxxxxxxxxxxxxxxxxxxxxxxxxxxxxxxxx   
.................... //mang tung doan so to cua LCD 
.................... //xxxxxxxxxxxxxxxxxxxxxxxxxxxxxxxxxxxxxxxxxxxxxxxxxxxxxxxx                    
.................... const unsigned int8 lcd_ma_8doan[] = { 
....................    0x07,0x0f,0x1f,0x1f,0x1f,0x1f,0x1f,0x1f,  //doan f - 0 
....................    0x1f,0x1f,0x1f,0x00,0x00,0x00,0x00,0x00,  //doan a - 1 
....................    0x1c,0x1e,0x1f,0x1f,0x1f,0x1f,0x1f,0x1f,  //doan b - 2 
....................    0x00,0x00,0x00,0x00,0x00,0x1f,0x1f,0x1f,  //doan d - 3 
....................    0x1f,0x1f,0x1f,0x1f,0x1f,0x1f,0x0f,0x07,  //doan e - 4 
....................    0x1f,0x1f,0x1f,0x1f,0x1f,0x1f,0x1e,0x1c,  //doan c - 5       
....................    0x1f,0x1f,0x1f,0x00,0x00,0x00,0x1f,0x1f,  //doan g+d-6  
....................    0x1f,0x1f,0x1f,0x1f,0x1f,0x1f,0x1f,0x1f}; //doan i  -7      
.................... //xxxxxxxxxxxxxxxxxxxxxxxxxxxxxxxxxxxxxxxxxxxxxxxxxxxxxxxx   
.................... //ham 612: copy mang so to vao cgram 
.................... //xxxxxxxxxxxxxxxxxxxxxxxxxxxxxxxxxxxxxxxxxxxxxxxxxxxxxxxx                                   
.................... void lcd_khoi_tao_cgram_so_to()                                                   
.................... {                                                                       
....................    usi8 i; 
....................    lcd_command(lcd_cgram_addr); 
*
039A:  MOVLW  40
039C:  MOVLB  4
039E:  MOVWF  x52
03A0:  MOVLB  0
03A2:  RCALL  02C0
....................    for(i=0;i<64;i++)   
03A4:  MOVLB  4
03A6:  CLRF   x42
03A8:  MOVF   x42,W
03AA:  SUBLW  3F
03AC:  BNC   03D0
....................      lcd_data(lcd_ma_8doan[i]);   
03AE:  CLRF   03
03B0:  MOVF   x42,W
03B2:  MOVFF  FF2,443
03B6:  BCF    FF2.7
03B8:  MOVLB  0
03BA:  RCALL  0084
03BC:  MOVLB  4
03BE:  BTFSC  x43.7
03C0:  BSF    FF2.7
03C2:  MOVWF  x43
03C4:  MOVWF  x4F
03C6:  MOVLB  0
03C8:  RCALL  0370
03CA:  MOVLB  4
03CC:  INCF   x42,F
03CE:  BRA    03A8
03D0:  MOVLB  0
03D2:  GOTO   0DA4 (RETURN)
.................... }          
.................... //xxxxxxxxxxxxxxxxxxxxxxxxxxxxxxxxxxxxxxxxxxxxxxxxxxxxxxxx   
.................... //ham 613: hien thi so to tai toa do x,y 
.................... //xxxxxxxxxxxxxxxxxxxxxxxxxxxxxxxxxxxxxxxxxxxxxxxxxxxxxxxx  
.................... void lcd_hien_thi_so_to(si8 so, x, y)  
.................... {                         
....................    usi8 i; 
....................    lcd_goto_xy(x,y); 
*
049E:  MOVFF  44B,44F
04A2:  MOVFF  44C,450
04A6:  RCALL  034E
....................    for(i=0;i<6;i++) 
04A8:  MOVLB  4
04AA:  CLRF   x4D
04AC:  MOVF   x4D,W
04AE:  SUBLW  05
04B0:  BNC   050A
....................    {                                                            
....................       if(i==3) lcd_goto_xy(x+1,y); 
04B2:  MOVF   x4D,W
04B4:  SUBLW  03
04B6:  BNZ   04CA
04B8:  MOVLW  01
04BA:  ADDWF  x4B,W
04BC:  MOVWF  x4E
04BE:  MOVWF  x4F
04C0:  MOVFF  44C,450
04C4:  MOVLB  0
04C6:  RCALL  034E
04C8:  MOVLB  4
....................       lcd_data(lcd_so_to[so][i]); 
04CA:  MOVFF  44A,44E
04CE:  MOVLW  06
04D0:  MOVWF  x4F
04D2:  MOVLB  0
04D4:  BRA    044E
04D6:  MOVF   01,W
04D8:  MOVLB  4
04DA:  CLRF   x4F
04DC:  MOVWF  x4E
04DE:  CLRF   03
04E0:  MOVF   x4D,W
04E2:  ADDWF  x4E,W
04E4:  MOVWF  01
04E6:  MOVF   x4F,W
04E8:  ADDWFC 03,F
04EA:  MOVF   01,W
04EC:  MOVFF  FF2,44E
04F0:  BCF    FF2.7
04F2:  MOVLB  0
04F4:  RCALL  0038
04F6:  MOVLB  4
04F8:  BTFSC  x4E.7
04FA:  BSF    FF2.7
04FC:  MOVWF  x4E
04FE:  MOVWF  x4F
0500:  MOVLB  0
0502:  RCALL  0370
0504:  MOVLB  4
0506:  INCF   x4D,F
0508:  BRA    04AC
....................    }                         
050A:  MOVLB  0
050C:  RETURN 0
.................... }    
....................     
.................... //xxxxxxxxxxxxxxxxxxxxxxxxxxxxxxxxxxxxxxxxxxxxxxxxxxxxxxxx   
.................... //ham 614: xoa so to tai toa do x,y 
.................... //xxxxxxxxxxxxxxxxxxxxxxxxxxxxxxxxxxxxxxxxxxxxxxxxxxxxxxxx  
.................... void lcd_xoa_so_to(si8 x, y) 
.................... {   
....................    usi8 i; 
....................    lcd_goto_xy(x,y);          
*
0AA6:  MOVFF  449,44F
0AAA:  MOVFF  44A,450
0AAE:  RCALL  034E
....................    for(i=0;i<6;i++)  
0AB0:  MOVLB  4
0AB2:  CLRF   x4B
0AB4:  MOVF   x4B,W
0AB6:  SUBLW  05
0AB8:  BNC   0AE0
....................    {             
....................       if(i==3) lcd_goto_xy(x+1,y);     
0ABA:  MOVF   x4B,W
0ABC:  SUBLW  03
0ABE:  BNZ   0AD2
0AC0:  MOVLW  01
0AC2:  ADDWF  x49,W
0AC4:  MOVWF  x4C
0AC6:  MOVWF  x4F
0AC8:  MOVFF  44A,450
0ACC:  MOVLB  0
0ACE:  RCALL  034E
0AD0:  MOVLB  4
....................       lcd_data(' '); 
0AD2:  MOVLW  20
0AD4:  MOVWF  x4F
0AD6:  MOVLB  0
0AD8:  RCALL  0370
0ADA:  MOVLB  4
0ADC:  INCF   x4B,F
0ADE:  BRA    0AB4
....................    } 
0AE0:  MOVLB  0
0AE2:  GOTO   0B7C (RETURN)
.................... }  
.................... //xxxxxxxxxxxxxxxxxxxxxxxxxxxxxxxxxxxxxxxxxxxxxxxxxxxxxxxx   
.................... //ham 615: hien thi so hex toa do x,y 
.................... //xxxxxxxxxxxxxxxxxxxxxxxxxxxxxxxxxxxxxxxxxxxxxxxxxxxxxxxx  
.................... void lcd_hthi_byte(usi8 sh,x,y)  
.................... {   
....................    usi8 bh,bl; 
....................    lcd_goto_xy(x,y); 
....................    bh=sh/16; bl=sh%16;                                                 
....................    if(bh>9) lcd_data(bh+0x37); 
....................    else     lcd_data(bh+0x30); 
....................    if(bl>9) lcd_data(bl+0x37); 
....................    else     lcd_data(bl+0x30); 
.................... }  
.................... //xxxxxxxxxxxxxxxxxxxxxxxxxxxxxxxxxxxxxxxxxxxxxxxxxxxxxxxx   
.................... //ham 616: giai ma hien thi 2 so tai toa do x,y 
.................... //xxxxxxxxxxxxxxxxxxxxxxxxxxxxxxxxxxxxxxxxxxxxxxxxxxxxxxxx  
.................... void lcd_gm_ht_2so_nho_xvn(usi16 so,usi8 x,usi8 y,int1 xvn)       
.................... {                            
....................    usi8 ch,dv;           
....................    lcd_goto_xy(x,y);                    
....................    ch = so/10%10+0x30;  dv = so%10+0x30; 
....................    if(xvn)  
....................    { 
....................       if(ch==0x30) ch=" "; 
....................    } 
....................    lcd_data(ch);   
....................    lcd_data(dv);    
.................... } 
.................... //xxxxxxxxxxxxxxxxxxxxxxxxxxxxxxxxxxxxxxxxxxxxxxxxxxxxxxxx   
.................... //ham 617: giai ma hien thi 3 so tai toa do x,y 
.................... //xxxxxxxxxxxxxxxxxxxxxxxxxxxxxxxxxxxxxxxxxxxxxxxxxxxxxxxx  
.................... void lcd_gm_ht_3so_nho_xvn(usi16 so,usi8 x,usi8 y,int1 xvn)       
.................... {                            
....................    usi8 tr,ch,dv;           
....................    lcd_goto_xy(x,y);                    
....................    tr = so/100%10+0x30;  
....................    ch = so/10%10+0x30;         
....................    dv = so%10+0x30; 
....................    if(xvn)  
....................    { 
....................       if(tr==0x30) 
....................       {      
....................          tr=" "; 
....................          if(ch==0x30) ch=" "; 
....................       } 
....................    } 
....................    lcd_data(tr);     
....................    lcd_data(ch);   
....................    lcd_data(dv);    
.................... } 
.................... //xxxxxxxxxxxxxxxxxxxxxxxxxxxxxxxxxxxxxxxxxxxxxxxxxxxxxxxx   
.................... //ham 618: giai ma hien thi 4 so tai toa do x,y 
.................... //xxxxxxxxxxxxxxxxxxxxxxxxxxxxxxxxxxxxxxxxxxxxxxxxxxxxxxxx  
.................... void lcd_gm_ht_4so_nho_xvn(usi16 so,usi8 x,usi8 y,int1 xvn)       
.................... {                            
....................    usi8 ng,tr,ch,dv;           
....................    lcd_goto_xy(x,y);                 
....................    ng = so/1000%10+0x30;     
....................    tr = so/100%10+0x30;  
....................    ch = so/10%10+0x30;         
....................    dv = so%10+0x30; 
....................    if(xvn)  
....................    { 
....................       if(ng==0x30) 
....................       {   
....................          ng=" "; 
....................          if(tr==0x30) 
....................          {      
....................             tr=" "; 
....................             if(ch==0x30) ch=" "; 
....................          } 
....................       } 
....................    } 
....................    lcd_data(ng);  lcd_data(tr);     
....................    lcd_data(ch);  lcd_data(dv);    
.................... } 
.................... //xxxxxxxxxxxxxxxxxxxxxxxxxxxxxxxxxxxxxxxxxxxxxxxxxxxxxxxx   
.................... //ham 619: giai ma hien thi 5 so tai toa do x,y 
.................... //xxxxxxxxxxxxxxxxxxxxxxxxxxxxxxxxxxxxxxxxxxxxxxxxxxxxxxxx  
.................... void lcd_gm_ht_5so_nho_xvn(usi16 so,usi8 x,usi8 y)       
.................... {                            
....................    usi8 cn,ng,tr,ch,dv;           
....................    lcd_goto_xy(x,y); 
....................    cn = so/10000%10+0x30;     
....................    ng = so/1000%10+0x30;     
....................    tr = so/100%10+0x30;  
....................    ch = so/10%10+0x30;         
....................    dv = so%10+0x30; 
....................    if(cn==0x30) 
....................    { 
....................      cn=" "; 
....................      if(ng==0x30) 
....................       {   
....................         ng=" "; 
....................         if(tr==0x30) 
....................         {      
....................         tr=" "; 
....................         if(ch==0x30) ch=" "; 
....................       } 
....................       } 
....................    } 
....................    lcd_data(cn); 
....................    lcd_data(ng);  lcd_data(tr);     
....................    lcd_data(ch);  lcd_data(dv);    
.................... } 
.................... //xxxxxxxxxxxxxxxxxxxxxxxxxxxxxxxxxxxxxxxxxxxxxxxxxxxxxxxx   
.................... //ham 620: giai ma hien thi 2 so to tai toa do x,y 
.................... //xxxxxxxxxxxxxxxxxxxxxxxxxxxxxxxxxxxxxxxxxxxxxxxxxxxxxxxx  
.................... void lcd_gm_ht_2so_to_xvn(usi16 so,usi8 x,usi8 y,int1 xvn) 
.................... {  
....................    usi8 ch,dv;     
....................    lcd_goto_xy(x,y); 
0AE6:  MOVFF  444,44F
0AEA:  MOVFF  445,450
0AEE:  RCALL  034E
....................    ch = so/10%10;         
0AF0:  MOVFF  443,44C
0AF4:  MOVFF  442,44B
0AF8:  MOVLB  4
0AFA:  CLRF   x4E
0AFC:  MOVLW  0A
0AFE:  MOVWF  x4D
0B00:  MOVLB  0
0B02:  RCALL  0A60
0B04:  MOVFF  02,44A
0B08:  MOVFF  01,449
0B0C:  MOVFF  02,44C
0B10:  MOVFF  01,44B
0B14:  MOVLB  4
0B16:  CLRF   x4E
0B18:  MOVLW  0A
0B1A:  MOVWF  x4D
0B1C:  MOVLB  0
0B1E:  RCALL  0A60
0B20:  MOVFF  00,447
0B24:  MOVLB  4
....................    dv = so%10; 
0B26:  MOVFF  443,44C
0B2A:  MOVFF  442,44B
0B2E:  CLRF   x4E
0B30:  MOVLW  0A
0B32:  MOVWF  x4D
0B34:  MOVLB  0
0B36:  RCALL  0A60
0B38:  MOVFF  00,448
0B3C:  MOVLB  4
....................    //lcd_hien_thi_so_to(ch,x,y);                
....................    lcd_hien_thi_so_to(dv,x,y+3);   
0B3E:  MOVLW  03
0B40:  ADDWF  x45,W
0B42:  MOVWF  x49
0B44:  MOVFF  448,44A
0B48:  MOVFF  444,44B
0B4C:  MOVWF  x4C
0B4E:  MOVLB  0
0B50:  RCALL  049E
....................    if((ch==0)&&(xvn)) lcd_xoa_so_to(x,y); 
0B52:  MOVLB  4
0B54:  MOVF   x47,F
0B56:  BNZ   0B6C
0B58:  MOVF   x46,F
0B5A:  BZ    0B6C
0B5C:  MOVFF  444,449
0B60:  MOVFF  445,44A
0B64:  MOVLB  0
0B66:  BRA    0AA6
0B68:  MOVLB  0
0B6A:  BRA    0B7C
....................    else      lcd_hien_thi_so_to(ch,x,y);      
0B6C:  MOVFF  447,44A
0B70:  MOVFF  444,44B
0B74:  MOVFF  445,44C
0B78:  MOVLB  0
0B7A:  RCALL  049E
0B7C:  GOTO   0B9C (RETURN)
.................... } 
.................... //xxxxxxxxxxxxxxxxxxxxxxxxxxxxxxxxxxxxxxxxxxxxxxxxxxxxxxxx   
.................... //ham 621: giai ma hien thi 3 so to tai toa do x,y 
.................... //xxxxxxxxxxxxxxxxxxxxxxxxxxxxxxxxxxxxxxxxxxxxxxxxxxxxxxxx  
.................... void lcd_gm_ht_3so_to_xvn(usi16 so,usi8 x,usi8 y,int1 xvn) 
.................... {  
....................    usi8 tr,ch,dv;           
....................    lcd_goto_xy(x,y);                    
....................    tr = so/100%10;  
....................    ch = so/10%10;         
....................    dv = so%10; 
....................    lcd_hien_thi_so_to(tr,x,y);                
....................    lcd_hien_thi_so_to(ch,x,y+3);   
....................    lcd_hien_thi_so_to(dv,x,y+6); 
....................    if((tr==0)&&(xvn)) 
....................    {      
....................       lcd_xoa_so_to(x,y); 
....................       if(ch==0) lcd_xoa_so_to(x,y+3); 
....................    } 
.................... } 
.................... //xxxxxxxxxxxxxxxxxxxxxxxxxxxxxxxxxxxxxxxxxxxxxxxxxxxxxxxx   
.................... //ham 622: giai ma hien thi 4 so to tai toa do x,y 
.................... //xxxxxxxxxxxxxxxxxxxxxxxxxxxxxxxxxxxxxxxxxxxxxxxxxxxxxxxx  
.................... void lcd_gm_ht_4so_to_xvn(usi16 so,usi8 x,usi8 y,int1 xvn) 
.................... {  
....................    usi8 ng,tr,ch,dv;           
....................    lcd_goto_xy(x,y);                    
....................    ng = so/1000%10;  
....................    tr = so/100%10;  
....................    ch = so/10%10;         
....................    dv = so%10; 
....................    lcd_hien_thi_so_to(ng,x,y);                
....................    lcd_hien_thi_so_to(tr,x,y+3);   
....................    lcd_hien_thi_so_to(ch,x,y+6); 
....................    lcd_hien_thi_so_to(dv,x,y+9);   
....................    if((ng==0)&&(xvn)) 
....................    {      
....................       lcd_xoa_so_to(x,y); 
....................       if(tr==0)  
....................      { 
....................       lcd_xoa_so_to(x,y+3); 
....................       if(ch==0) lcd_xoa_so_to(x,y+6); 
....................      } 
....................    } 
.................... } 
.................... //xxxxxxxxxxxxxxxxxxxxxxxxxxxxxxxxxxxxxxxxxxxxxxxxxxxxxxxx   
.................... //ham 623: giai ma hien thi 4 so to tai toa do x,y 
.................... //xxxxxxxxxxxxxxxxxxxxxxxxxxxxxxxxxxxxxxxxxxxxxxxxxxxxxxxx  
.................... void lcd_gm_ht_5so_to_xvn(usi16 so,usi8 x,usi8 y,int1 xvn) 
.................... {  
....................    usi8 cn,ng,tr,ch,dv;  
....................  
....................       lcd_goto_xy(x,y); 
....................       ng = so/1000%10;  
....................       ng = so/1000%10;  
....................       tr = so/100%10;  
....................       ch = so/10%10;         
....................       dv = so%10; 
....................       lcd_hien_thi_so_to(cn,x,y);                
....................       lcd_hien_thi_so_to(ng,x,y+3);   
....................       lcd_hien_thi_so_to(tr,x,y+6); 
....................       lcd_hien_thi_so_to(ch,x,y+9);  
....................       lcd_hien_thi_so_to(dv,x,y+12); 
....................       if((cn==0)&&(xvn)) 
....................       {      
....................          lcd_xoa_so_to(x,y); 
....................          if(ng==0)  
....................          { 
....................             lcd_xoa_so_to(x,y+3); 
....................             if(tr==0)  
....................             { 
....................                lcd_xoa_so_to(x,y+6); 
....................                if(ch==0) lcd_xoa_so_to(x,y+9); 
....................             } 
....................          } 
....................       } 
.................... } 
.................... //xxxxxxxxxxxxxxxxxxxxxxxxxxxxxxxxxxxxxxxxxxxxxxxxxxxxxxxx   
.................... //ham 624: giai ma hien thi 4 so to tai toa do x,y 
.................... //xxxxxxxxxxxxxxxxxxxxxxxxxxxxxxxxxxxxxxxxxxxxxxxxxxxxxxxx  
.................... void lcd_hien_thi_3so_tp_nho(usi16 tp,usi8 x, y) 
.................... {    
....................    lcd_goto_xy(x,y); 
....................    lcd_data(".");                                         
....................    lcd_data(tp/100%10+0x30); 
....................    lcd_data(tp/10%10+0x30);    
....................    lcd_data(tp%10+0x30);     
.................... }   
.................... //xxxxxxxxxxxxxxxxxxxxxxxxxxxxxxxxxxxxxxxxxxxxxxxxxxxxxxxx 
.................... //ham 624: giai ma hien thi 4 so to tai toa do x,y 
.................... //xxxxxxxxxxxxxxxxxxxxxxxxxxxxxxxxxxxxxxxxxxxxxxxxxxxxxxxx  
.................... void lcd_hien_thi_2so_tp_nho(usi8 tp,usi8 x, y) 
.................... {    
....................    lcd_goto_xy(x,y); 
....................    lcd_data(".");                                         
....................    lcd_data(tp/10%10+0x30); 
....................    lcd_data(tp%10+0x30);    
.................... }   
....................  
.................... //xxxxxxxxxxxxxxxxxxxxxxxxxxxxxxxxxxxxxxxxxxxxxxxxxxxxxxxx   
.................... //ham 625: giai ma hien thi 4 so to tai toa do x,y 
.................... //xxxxxxxxxxxxxxxxxxxxxxxxxxxxxxxxxxxxxxxxxxxxxxxxxxxxxxxx  
.................... void lcd_hien_thi_1so_tp_nho(usi8 tp,usi8 x, y) 
.................... {    
....................    lcd_goto_xy(x,y); 
....................    lcd_data(".");                                         
....................    lcd_data(tp/10%10+0x30); 
.................... }  
....................  
.................... #include <tv_dht11.c>                                             
.................... //xxxxxxxxxxxxxxxxxxxxxxxxxxxxxxxxxxxxxxxxxxxxxxxxxxxxxxxx 
.................... //NGUYEN DINH PHU SU PHAM KY THUAT TP HCM 
.................... //xxxxxxxxxxxxxxxxxxxxxxxxxxxxxxxxxxxxxxxxxxxxxxxxxxxxxxxx 
....................  
.................... #define dht11_pin_low()    output_drive(dht11); output_low(dht11) 
.................... #define dht11_pin_high()   output_drive(dht11); output_high(dht11) 
.................... #define dht11_pin_float()  output_float(dht11) 
.................... #define dht11_pin_read()   input_state(dht11)   
.................... //xxxxxxxxxxxxxxxxxxxxxxxxxxxxxxxxxxxxxxxxxxxxxxxxxxxxxxx 
.................... //ham bat dau giao tiep dht11 
.................... //xxxxxxxxxxxxxxxxxxxxxxxxxxxxxxxxxxxxxxxxxxxxxxxxxxxxxxx   
.................... void dht11_start()         
.................... {                                 
....................    dht11_pin_low(); 
....................    delay_ms(20);                                        
....................    dht11_pin_high(); 
....................    dht11_pin_float(); 
....................    delay_us(40);    
.................... }  
.................... //xxxxxxxxxxxxxxxxxxxxxxxxxxxxxxxxxxxxxxxxxxxxxxxxxxxxxxx 
.................... //ham kiem tra dap ung cua DHT11:do thuc te cac thong so 
.................... //xxxxxxxxxxxxxxxxxxxxxxxxxxxxxxxxxxxxxxxxxxxxxxxxxxxxxxx   
.................... int1 dht11_check_response()         
.................... {                                 
....................    unsigned int8 cnt=0;    
....................    int1 tt=1, tt1=1; 
....................    do 
....................    { 
....................       if(dht11_pin_read()==0) cnt++; //       
....................       else                    tt=0;  //het o muc 0,xung ln 1,        
....................    }while ((cnt<200)&&(tt==1));      //dung: cnt<200 v tt=1; sai  
....................                                                 
....................    cnt=0; tt1=1; 
....................    do 
....................    { 
....................       if(dht11_pin_read()==1) cnt++;        
....................       else                    tt1=0;  //het o muc 1, xung xuong muc 0        
....................    }while ((cnt<200)&&(tt1==1));               
....................    return tt;  
.................... }        
.................... //xxxxxxxxxxxxxxxxxxxxxxxxxxxxxxxxxxxxxxxxxxxxxxxxxxxxxxx 
.................... //ham doc 5 byte cua DHT11 
.................... //xxxxxxxxxxxxxxxxxxxxxxxxxxxxxxxxxxxxxxxxxxxxxxxxxxxxxxx   
.................... unsigned int8 dht11_read()         
.................... {                                                                                
....................    unsigned int8 kq,j;     
....................    for(j=0;j<8;j++)                                                
....................    {                                                          
....................       while(!dht11_pin_read());  //doi het muc 0     
....................       delay_us(30); 
....................       if(dht11_pin_read()==1)  
....................       {              
....................          kq = (kq<<1)+1;     
....................          delay_us(40);           //bit 1 thi them delay 
....................       }                           
....................       else kq = kq<<1;   
....................    }     
....................    return kq;  
.................... }   
.................... //xxxxxxxxxxxxxxxxxxxxxxxxxxxxxxxxxxxxxxxxxxxxxxxxxxxxxxx 
.................... //ham hien thi thong bao tren lcd khong co dht11 
.................... //xxxxxxxxxxxxxxxxxxxxxxxxxxxxxxxxxxxxxxxxxxxxxxxxxxxxxxx   
.................... void hien_thi_no_dht11()  
.................... {  
....................    lcd_goto_xy(0,0);                                                         
....................    lcd_data("NO DHT11");                                            
.................... }               
.................... //xxxxxxxxxxxxxxxxxxxxxxxxxxxxxxxxxxxxxxxxxxxxxxxxxxxxxxx 
.................... //ham hien thi thong bao check sum sai 
.................... //xxxxxxxxxxxxxxxxxxxxxxxxxxxxxxxxxxxxxxxxxxxxxxxxxxxxxxx   
.................... void hien_thi_sai_dht11()          
.................... {  
....................    lcd_goto_xy(0,0);                                                         
....................    lcd_data("DOC SAI DU LIEU DHT11");  
.................... } 
....................  
.................... #include <tv_08_relay_triac_buzzer_dc.c>   
.................... //xxxxxxxxxxxxxxxxxxxxxxxxxxxxxxxxxxxxxxxxxxxxxxxxxxxxxxxx 
.................... //NGUYEN DINH PHU SU PHAM KY THUAT TP HCM 
.................... //xxxxxxxxxxxxxxxxxxxxxxxxxxxxxxxxxxxxxxxxxxxxxxxxxxxxxxxx 
....................  
.................... //xxxxxxxxxxxxxxxxxxxxxxxxxxxxxxxxxxxxxxxxxxxxxxxxxxxxxxxx 
.................... //ham 801: dk relay,triac, buzzer, dong co, sim 
.................... //xxxxxxxxxxxxxxxxxxxxxxxxxxxxxxxxxxxxxxxxxxxxxxxxxxxxxxxx 
.................... void xuat_buzzer_relay() 
.................... {      
....................    unsigned int8 rbdc1,rbdc2; 
....................    rbdc1=rbdc; rbdc2=rbdc>>8;       
*
08D2:  MOVFF  04,444
08D6:  MOVFF  05,445
....................    xuat_1byte(rbdc2);      xuat_1byte(rbdc1);             
08DA:  MOVFF  445,456
08DE:  RCALL  0186
08E0:  MOVFF  444,456
08E4:  RCALL  0186
....................    output_high(rck_rlb);    
08E6:  BCF    F95.3
08E8:  BSF    F8C.3
....................    output_low(rck_rlb); 
08EA:  BCF    F95.3
08EC:  BCF    F8C.3
08EE:  RETURN 0
.................... }                                    
.................... //xxxxxxxxxxxxxxxxxxxxxxxxxxxxxxxxxxxxxxxxxxxxxxxxxxxxxxxx 
.................... //ham 802: dk buzzer on 
.................... //xxxxxxxxxxxxxxxxxxxxxxxxxxxxxxxxxxxxxxxxxxxxxxxxxxxxxxxx 
.................... void buzzer_on() 
.................... {     
....................    buzzer=1; 
....................    xuat_buzzer_relay();          
.................... } 
.................... //xxxxxxxxxxxxxxxxxxxxxxxxxxxxxxxxxxxxxxxxxxxxxxxxxxxxxxxx 
.................... //ham 803: dk buzzer off 
.................... //xxxxxxxxxxxxxxxxxxxxxxxxxxxxxxxxxxxxxxxxxxxxxxxxxxxxxxxx 
.................... void buzzer_off() 
.................... {      
....................    buzzer=0; 
....................    xuat_buzzer_relay(); 
.................... }   
.................... //xxxxxxxxxxxxxxxxxxxxxxxxxxxxxxxxxxxxxxxxxxxxxxxxxxxxxxxx 
.................... //ham 804: dk buzzer on roi off de tao bip 
.................... //xxxxxxxxxxxxxxxxxxxxxxxxxxxxxxxxxxxxxxxxxxxxxxxxxxxxxxxx 
.................... void buzzer_on_off(usi16 dl) 
.................... {      
....................    buzzer=1; 
08F0:  BSF    05.0
....................    xuat_buzzer_relay(); 
08F2:  RCALL  08D2
....................    delay_ms(dl); 
08F4:  MOVFF  443,444
08F8:  MOVLB  4
08FA:  INCF   x44,F
08FC:  DECF   x44,F
08FE:  BTFSC  FD8.2
0900:  BRA    090C
0902:  SETF   x45
0904:  MOVLB  0
0906:  RCALL  02CA
0908:  MOVLB  4
090A:  BRA    08FC
090C:  MOVFF  442,445
0910:  MOVLB  0
0912:  RCALL  02CA
....................    buzzer=0; 
0914:  BCF    05.0
....................    xuat_buzzer_relay(); 
0916:  RCALL  08D2
0918:  GOTO   0C74 (RETURN)
.................... }   
.................... //xxxxxxxxxxxxxxxxxxxxxxxxxxxxxxxxxxxxxxxxxxxxxxxxxxxxxxxx 
.................... //ham 805: dk Relay 1 on 
.................... //xxxxxxxxxxxxxxxxxxxxxxxxxxxxxxxxxxxxxxxxxxxxxxxxxxxxxxxx 
.................... void relay_1_on() 
.................... {     
....................    relay_1=1; 
....................    xuat_buzzer_relay();          
.................... } 
.................... //xxxxxxxxxxxxxxxxxxxxxxxxxxxxxxxxxxxxxxxxxxxxxxxxxxxxxxxx 
.................... //ham 806: dk Relay 1 off 
.................... //xxxxxxxxxxxxxxxxxxxxxxxxxxxxxxxxxxxxxxxxxxxxxxxxxxxxxxxx 
.................... void relay_1_off() 
.................... {     
....................    relay_1=0; 
....................    xuat_buzzer_relay();          
.................... } 
.................... //xxxxxxxxxxxxxxxxxxxxxxxxxxxxxxxxxxxxxxxxxxxxxxxxxxxxxxxx 
.................... //ham 807: dk Relay 2 on 
.................... //xxxxxxxxxxxxxxxxxxxxxxxxxxxxxxxxxxxxxxxxxxxxxxxxxxxxxxxx 
.................... void relay_2_on() 
.................... {     
....................    relay_2=1; 
....................    xuat_buzzer_relay();          
.................... } 
.................... //xxxxxxxxxxxxxxxxxxxxxxxxxxxxxxxxxxxxxxxxxxxxxxxxxxxxxxxx 
.................... //ham 808: dk Relay 2 off 
.................... //xxxxxxxxxxxxxxxxxxxxxxxxxxxxxxxxxxxxxxxxxxxxxxxxxxxxxxxx 
.................... void relay_2_off() 
.................... {     
....................    relay_2=0; 
....................    xuat_buzzer_relay();          
.................... } 
.................... //xxxxxxxxxxxxxxxxxxxxxxxxxxxxxxxxxxxxxxxxxxxxxxxxxxxxxxxx 
.................... //ham 809: dk 2 Relay ON 
.................... //xxxxxxxxxxxxxxxxxxxxxxxxxxxxxxxxxxxxxxxxxxxxxxxxxxxxxxxx 
.................... void relay_1_relay_2_on() 
.................... {     
....................    relay_1=1;  relay_2=1; 
....................    xuat_buzzer_relay();          
.................... } 
.................... //xxxxxxxxxxxxxxxxxxxxxxxxxxxxxxxxxxxxxxxxxxxxxxxxxxxxxxxx 
.................... //ham 810: dk 2 Relay Off 
.................... //xxxxxxxxxxxxxxxxxxxxxxxxxxxxxxxxxxxxxxxxxxxxxxxxxxxxxxxx 
.................... void relay_1_relay_2_off() 
.................... {     
....................    relay_1=0;  relay_2=0; 
....................    xuat_buzzer_relay();          
.................... } 
.................... //xxxxxxxxxxxxxxxxxxxxxxxxxxxxxxxxxxxxxxxxxxxxxxxxxxxxxxxx 
.................... //ham 811: dk triac 1 on 
.................... //xxxxxxxxxxxxxxxxxxxxxxxxxxxxxxxxxxxxxxxxxxxxxxxxxxxxxxxx 
.................... void triac_1_on() 
.................... {     
....................    triac_1=1; 
....................    xuat_buzzer_relay();          
.................... } 
.................... //xxxxxxxxxxxxxxxxxxxxxxxxxxxxxxxxxxxxxxxxxxxxxxxxxxxxxxxx 
.................... //ham 812: dk triac 1 off 
.................... //xxxxxxxxxxxxxxxxxxxxxxxxxxxxxxxxxxxxxxxxxxxxxxxxxxxxxxxx 
.................... void triac_1_off() 
.................... {     
....................    triac_1=0; 
....................    xuat_buzzer_relay();          
.................... } 
.................... //xxxxxxxxxxxxxxxxxxxxxxxxxxxxxxxxxxxxxxxxxxxxxxxxxxxxxxxx 
.................... //ham 813: dk triac 2 on 
.................... //xxxxxxxxxxxxxxxxxxxxxxxxxxxxxxxxxxxxxxxxxxxxxxxxxxxxxxxx 
.................... void triac_2_on() 
.................... {     
....................    triac_2=1; 
....................    xuat_buzzer_relay();          
.................... } 
.................... //xxxxxxxxxxxxxxxxxxxxxxxxxxxxxxxxxxxxxxxxxxxxxxxxxxxxxxxx 
.................... //ham 814: dk triac 2 off 
.................... //xxxxxxxxxxxxxxxxxxxxxxxxxxxxxxxxxxxxxxxxxxxxxxxxxxxxxxxx 
.................... void triac_2_off()               
.................... {                                                        
....................    triac_2=0; 
....................    xuat_buzzer_relay();          
.................... }        
....................  
.................... #include <tv_07_adc_cb.c>                                           
.................... //xxxxxxxxxxxxxxxxxxxxxxxxxxxxxxxxxxxxxxxxxxxxxxxxxxxxxxxx 
.................... //NGUYEN DINH PHU SU PHAM KY THUAT TP HCM 
.................... //xxxxxxxxxxxxxxxxxxxxxxxxxxxxxxxxxxxxxxxxxxxxxxxxxxxxxxxx 
....................  
.................... //xxxxxxxxxxxxxxxxxxxxxxxxxxxxxxxxxxxxxxxxxxxxxxxxxxxxxxxx 
.................... //xxxxxxxxxxxxxxxxxxxxxxxxxxxxxxxxxxxxxxxxxxxxxxxxxxxxxxxx 
.................... //ham 701: chuyen doi theo kenh va so lan, tra ve T/F  
.................... //xxxxxxxxxxxxxxxxxxxxxxxxxxxxxxxxxxxxxxxxxxxxxxxxxxxxxxxx    
.................... //xxxxxxxxxxxxxxxxxxxxxxxxxxxxxxxxxxxxxxxxxxxxxxxxxxxxxxxx  
.................... //dinh nghia cac kenh ADC noi voi cac cam bien  
.................... #define chan_lm35a   0                         
.................... #define chan_lm35b   1 
.................... #define chan_cbkc    2 
.................... //xxxxxxxxxxxxxxxxxxxxxxxxxxxxxxxxxxxxxxxxxxxxxxxxxxxxxxxx   
.................... float adc_read(usi8 solan,chan_i)                       
.................... { 
....................    float kq_adc; 
....................    set_adc_channel(chan_i);                
....................    delay_us(20);                                           
....................    kq_adc = 0;              
....................    for(int8 i=0;i<solan;i++)   
....................    { 
....................       kq_adc = kq_adc + read_adc();                         
....................    } 
....................    kq_adc = kq_adc/solan;      
....................    return kq_adc;  
.................... } 
.................... //xxxxxxxxxxxxxxxxxxxxxxxxxxxxxxxxxxxxxxxxxxxxxxxxxxxxxxxx 
.................... //ham 702: tach so thuc thanh phan nguyen va thap phan 
.................... //xxxxxxxxxxxxxxxxxxxxxxxxxxxxxxxxxxxxxxxxxxxxxxxxxxxxxxxx   
.................... usi16 so_ng,so_tp; 
.................... void float_to_ng_2so_tp(float st)                       
.................... {    
....................    so_ng = st/1;       //nguyen                           
....................    st = st-so_ng;      //tphan 
....................    st = st*100;                                                          
....................    so_tp = st/1;    
.................... }  
.................... //xxxxxxxxxxxxxxxxxxxxxxxxxxxxxxxxxxxxxxxxxxxxxxxxxxxxxxxx    
.................... //xxxxxxxxxxxxxxxxxxxxxxxxxxxxxxxxxxxxxxxxxxxxxxxxxxxxxxxx 
.................... //ham 703: do nhiet lm35a, lm35b, dkhien den, bao dong 
.................... //xxxxxxxxxxxxxxxxxxxxxxxxxxxxxxxxxxxxxxxxxxxxxxxxxxxxxxxx    
.................... //xxxxxxxxxxxxxxxxxxxxxxxxxxxxxxxxxxxxxxxxxxxxxxxxxxxxxxxx    
.................... usi8 nd_tren = 34;                                                       
.................... usi8 nd_duoi = 32;   
.................... #define ttqn tttd  
....................  
.................... int1 tttd=0,buz_ena=0,ttmd=0;           
.................... void so_sanh_1nd(usi16 nd1)                         
.................... {                                    
....................    if((nd1>nd_tren)&&(tttd==0)) 
....................    {                      
....................          tttd = 1;   ttmd = 0;                                                            
....................          if(buz_ena) buzzer_on();                                    
....................          triac_2_off();  
....................    }                                                                                     
....................    else if((nd1<nd_tren)&&(tttd==1))            
....................    {                        
....................          tttd = 0;   
....................          if(buz_ena) buzzer_off();            
....................    }                                 
....................    else if((nd1<nd_duoi)&&(tttd==0))  
....................    { 
....................       if(ttmd==0)  
....................       { 
....................          triac_2_on(); ttmd=1; 
....................          buzzer_on_off(300); 
....................       } 
....................    }  
.................... }      
....................  
....................  
.................... void so_sanh_and_2nd(usi16 nd1, usi16 nd2)                         
.................... {                                    
....................    if((nd1>nd_tren)&&(nd2>nd_tren)&&(tttd==0)) 
....................    {                      
....................       tttd = 1;    ttmd = 0;                                                            
....................       if(buz_ena) buzzer_on();                                    
....................       triac_2_off();  
....................    }                                                                                     
....................    else if((nd1<nd_tren)&&(nd2<nd_tren)&&(tttd==1))            
....................    {                        
....................       tttd = 0;   
....................       if(buz_ena) buzzer_off();                       
....................    }                                 
....................    else if((nd1<nd_duoi)&&(nd2<nd_duoi)&&(tttd==0))   
....................    { 
....................       if(ttmd==0)  
....................       { 
....................          triac_2_on(); ttmd=1; 
....................          buzzer_on_off(300); 
....................       } 
....................    }  
.................... }      
....................  
.................... void so_sanh_or_2nd(usi16 nd1, usi16 nd2)                         
.................... {                                    
....................    if(((nd1>nd_tren)||(nd2>nd_tren))&&(tttd==0)) 
....................    {                      
....................          tttd = 1;  ttmd = 0;                                                             
....................          if(buz_ena) buzzer_on();                                    
....................          triac_2_off();  
....................    }                                                                                     
....................    else if(((nd1<nd_tren)&&(nd2<nd_tren))&&(tttd==1))            
....................    {                        
....................          tttd = 0;                       
....................          if(buz_ena) buzzer_off();            
....................    }                                
....................    else if(((nd1<nd_duoi)||(nd2<nd_duoi))&&(tttd==0))     
....................    { 
....................       if(ttmd==0)  
....................       { 
....................          triac_2_on(); ttmd=1; 
....................          buzzer_on_off(300); 
....................       } 
....................    }  
....................    
.................... }                                    
....................                                     
.................... void so_sanh_nd_dk_buzzer(usi16 nd1, usi16 nd2, int8 sel)                         
.................... {                                                  
....................    if(sel==1)      so_sanh_1nd(nd1); 
....................    else if(sel==2) so_sanh_and_2nd(nd1,nd2); 
....................    else if(sel==3) so_sanh_or_2nd(nd1,nd2);    
.................... } 
....................  
.................... //xxxxxxxxxxxxxxxxxxxxxxxxxxxxxxxxxxxxxxxxxxxxxxxxxxxxxxxx     
.................... //xxxxxxxxxxxxxxxxxxxxxxxxxxxxxxxxxxxxxxxxxxxxxxxxxxxxxxxx 
.................... //bai 711: doc gia tri cua joystick hien thi lcd           
.................... //xxxxxxxxxxxxxxxxxxxxxxxxxxxxxxxxxxxxxxxxxxxxxxxxxxxxxxxx 
.................... //xxxxxxxxxxxxxxxxxxxxxxxxxxxxxxxxxxxxxxxxxxxxxxxxxxxxxxxx    
.................... //!void h711_lcd_hien_thi_joystick(usi8 x,y)                                  
.................... //!{                                              
.................... //!   lcd_goto_xy(0,0);                                                         
.................... //!   lcd_data("JOYSTICK"); 
.................... //!   lcd_goto_xy(1,4);                                                         
.................... //!   lcd_data("VRX:"); 
.................... //!   lcd_goto_xy(3,4);                                                         
.................... //!   lcd_data("VRY:"); 
.................... //!}  
.................... //! 
.................... //xxxxxxxxxxxxxxxxxxxxxxxxxxxxxxxxxxxxxxxxxxxxxxxxxxxxxxxx 
.................... //vrx noi kenh thu 1 AN1, vry noi voi an2 
.................... //cho phep hien thi 2 so thap phan tuy thuoc vao http 
.................... //dung bien nguyen tam de khi bang thi khong can hthi lai 
.................... //xxxxxxxxxxxxxxxxxxxxxxxxxxxxxxxxxxxxxxxxxxxxxxxxxxxxxxxx 
.................... //!usi16 vrx_ng,vrx_ngt; 
.................... //!void h711_adc_js_vrx_doc_xuly(usi8 solan)                                      
.................... //!{                                               
.................... //!   float vrx; 
.................... //!   vrx=h701_adc_read(solan,chan_js_vrx); 
.................... //!   h701_foat_to_ng_2so_tp(vrx);       
.................... //!   vrx_ng = so_ng; 
.................... //!} 
.................... //!//xxxxxxxxxxxxxxxxxxxxxxxxxxxxxxxxxxxxxxxxxxxxxxxxxxxxxxxx 
.................... //!void h711_adc_js_vrx_ht_lcd_7doan(usi8 x,y,z,int1 ht_l7d,ht_lcd)                                      
.................... //!{                                                  
.................... //!   if(vrx_ngt!=vrx_ng) 
.................... //!   { 
.................... //!      vrx_ngt=vrx_ng; 
.................... //!      if(ht_l7d)   
.................... //!      { 
.................... //!         giaima_bin_4so_vitri_vn(vrx_ng,z,cx_vn);  //4 
.................... //!         xuat_8led_7doan();  
.................... //!      } 
.................... //!      if(ht_lcd) lcd_gm_ht_4so_to_xvn(vrx_ng,x,y,kx_vn);//0,8 
.................... //!   }           
.................... //!}   
.................... //!//xxxxxxxxxxxxxxxxxxxxxxxxxxxxxxxxxxxxxxxxxxxxxxxxxxxxxxxx 
.................... //!void h711_adc_js_vrx_all(usi8 solan, x,y,z,int1 ht_l7d,ht_lcd)                                      
.................... //!{                                                  
.................... //!     h711_adc_js_vrx_doc_xuly(solan); 
.................... //!     h711_adc_js_vrx_ht_lcd_7doan(x,y,z,ht_l7d,ht_lcd); 
.................... //!}   
.................... //! 
.................... //!//xxxxxxxxxxxxxxxxxxxxxxxxxxxxxxxxxxxxxxxxxxxxxxxxxxxxxxxx 
.................... //!usi16 vry_ng,vry_ngt; 
.................... //!void h712_adc_js_vry_doc_xuly(usi8 solan)                                      
.................... //!{                                            
.................... //!   float vry;   
.................... //!   vry=h701_adc_read(solan,chan_js_vry); 
.................... //!   h701_foat_to_ng_2so_tp(vry);       
.................... //!   vry_ng = so_ng; 
.................... //!} 
.................... //! 
.................... //!void h712_adc_js_vry_ht_lcd_7doan(usi8 x,y,z,int1 ht_l7d,ht_lcd)                                      
.................... //!{                                              
.................... //!   if(vry_ngt!=vry_ng) 
.................... //!   { 
.................... //!      vry_ngt=vry_ng; 
.................... //!      if(ht_l7d)   
.................... //!      {   
.................... //!         giaima_bin_4so_vitri_vn(vry_ng,z,cx_vn);//0 
.................... //!         xuat_8led_7doan(); 
.................... //!      }                   
.................... //!      if(ht_lcd) lcd_gm_ht_4so_to_xvn(vry_ng,x,y,kx_vn);//2,8 
.................... //!   }                              
.................... //!}   
.................... //!  
.................... //!void h712_adc_js_vry_all(usi8 solan,x,y,z,int1 ht_l7d,ht_lcd )                                      
.................... //!{  
.................... //!   h712_adc_js_vry_doc_xuly(solan); 
.................... //!   h712_adc_js_vry_ht_lcd_7doan(x,y,z,ht_l7d,ht_lcd); 
.................... //!}      
....................  
.................... //xxxxxxxxxxxxxxxxxxxxxxxxxxxxxxxxxxxxxxxxxxxxxxxxxxxxxxxx 
.................... //ham kiem tra phim on                           
.................... //neu co nhan thi dao bit tt_on_off va tra ve co nhan 
.................... //neu khong nhan tra ve tt khong nhan 
.................... //xxxxxxxxxxxxxxxxxxxxxxxxxxxxxxxxxxxxxxxxxxxxxxxxxxxxxxxx      
.................... //!int1 phim_on_off_btn_joy()    
.................... //!{                      
.................... //!   if(phim_bt_joy_c1(c_ktnp,0)==co_nhan)    
.................... //!   { 
.................... //!      tt_on_off = ~tt_on_off; 
.................... //!      return co_nhan;    
.................... //!   }                                     
.................... //!   else   return khong_nhan;                    
.................... //!}   
.................... //!//xxxxxxxxxxxxxxxxxxxxxxxxxxxxxxxxxxxxxxxxxxxxxxxxxxxxxxxx 
.................... //!void h713_32led_on_off_btj()        
.................... //!{                               
.................... //!   tt_1btn = phim_on_off_btn_joy(); 
.................... //!   if(tt_1btn==co_nhan)               
.................... //!      h323_dk_32led_theo_tt_on_off(); 
.................... //!}             
....................  
....................  
.................... //!void b711_adc_joystick(usi8 solan,x,y,z,int1 ht_l7d,ht_lcd)                                      
.................... //!{                                            
.................... //!   h711_adc_js_vrx_all(solan,x,y,z,ht_l7d,ht_lcd);                                                                 
.................... //!   h711_adc_js_vry_all(solan);                       
.................... //!   h711_32led_on_off_btj();              
.................... //!}   
....................  
.................... //xxxxxxxxxxxxxxxxxxxxxxxxxxxxxxxxxxxxxxxxxxxxxxxxxxxxxxxx     
.................... //xxxxxxxxxxxxxxxxxxxxxxxxxxxxxxxxxxxxxxxxxxxxxxxxxxxxxxxx 
.................... //bai 711: doc gia tri cua joystick hien thi lcd           
.................... //xxxxxxxxxxxxxxxxxxxxxxxxxxxxxxxxxxxxxxxxxxxxxxxxxxxxxxxx 
.................... //xxxxxxxxxxxxxxxxxxxxxxxxxxxxxxxxxxxxxxxxxxxxxxxxxxxxxxxx    
....................  
.................... //xxxxxxxxxxxxxxxxxxxxxxxxxxxxxxxxxxxxxxxxxxxxxxxxxxxxxxxx 
.................... //ham kiem tra phim on                           
.................... //neu co nhan thi dao bit tt_on_off va tra ve co nhan 
.................... //neu khong nhan tra ve tt khong nhan 
.................... //xxxxxxxxxxxxxxxxxxxxxxxxxxxxxxxxxxxxxxxxxxxxxxxxxxxxxxxx                                                    
....................                                                                     
.................... //xxxxxxxxxxxxxxxxxxxxxxxxxxxxxxxxxxxxxxxxxxxxxxxxxxxxxxxx     
.................... //xxxxxxxxxxxxxxxxxxxxxxxxxxxxxxxxxxxxxxxxxxxxxxxxxxxxxxxx 
.................... //ham 712: do nhiet lm35a, dkhien den, bao dong           
.................... //xxxxxxxxxxxxxxxxxxxxxxxxxxxxxxxxxxxxxxxxxxxxxxxxxxxxxxxx 
.................... //xxxxxxxxxxxxxxxxxxxxxxxxxxxxxxxxxxxxxxxxxxxxxxxxxxxxxxxx 
.................... //!void b712_adc_lm35a_lm35b_joystick()                                      
.................... //!{ 
.................... //!          
.................... //!}  
.................... //!  
.................... //xxxxxxxxxxxxxxxxxxxxxxxxxxxxxxxxxxxxxxxxxxxxxxxxxxxxxxxx       
.................... //ham 712: do nhiet lm35a, lm35b, dkhien den, bao dong 
.................... //xxxxxxxxxxxxxxxxxxxxxxxxxxxxxxxxxxxxxxxxxxxxxxxxxxxxxxxx    
....................      
.................... //xxxxxxxxxxxxxxxxxxxxxxxxxxxxxxxxxxxxxxxxxxxxxxxxxxxxxxxx   
.................... //xxxxxxxxxxxxxxxxxxxxxxxxxxxxxxxxxxxxxxxxxxxxxxxxxxxxxxxx 
.................... //ham 721: do nhiet lm35a, lm35b, dkhien den, bao dong 
.................... //xxxxxxxxxxxxxxxxxxxxxxxxxxxxxxxxxxxxxxxxxxxxxxxxxxxxxxxx   
.................... //xxxxxxxxxxxxxxxxxxxxxxxxxxxxxxxxxxxxxxxxxxxxxxxxxxxxxxxx  
.................... //!void h721_lcd_ht_text_cbkc_gp2d12()                             
.................... //!{                                              
.................... //!   lcd_goto_xy(0,0);                                                         
.................... //!   lcd_data("Cam bien khoang cach");  
.................... //!   lcd_goto_xy(1,0);                                                         
.................... //!   lcd_data("SHARP GP2D12:10-80cm");     
.................... //!}   
.................... //!//xxxxxxxxxxxxxxxxxxxxxxxxxxxxxxxxxxxxxxxxxxxxxxxxxxxxxxxx  
.................... //!usi16 kc_ng,kc_tp,kc_ngt=0; 
.................... //!void h721_adc_cbkc_gp2d12_doc_xuly(usi8 sl)                                      
.................... //!{                 
.................... //!   float kc;   
.................... //!   kc=h701_adc_read(sl,chan_cbkc); 
.................... //!   kc = pow(4277/kc,1.106);                                     
.................... //!   if(kc>80) kc=80;   
.................... //!   h701_foat_to_ng_2so_tp(kc);       
.................... //!   kc_ng = so_ng;                               
.................... //!   kc_tp = so_tp;  
.................... //!}     
.................... //!//xxxxxxxxxxxxxxxxxxxxxxxxxxxxxxxxxxxxxxxxxxxxxxxxxxxxxxxx 
.................... //!void h721_adc_cbkc_gp2d12_ht_lcd_7doan(usi8 x,y,z,int1 ht_l7d,ht_lcd,ht_tp)                                      
.................... //!{                 
.................... //!   if(kc_ngt!=kc_ng) 
.................... //!   { 
.................... //!      kc_ngt=kc_ng;       
.................... //!      if(ht_l7d)  
.................... //!      { 
.................... //!         giaima_bin_2so_vitri_vn(kc_ng,z,cx_vn);//3 
.................... //!         xuat_8led_7doan(); 
.................... //!      } 
.................... //!      if(ht_lcd) lcd_gm_ht_2so_to_xvn(kc_ng,x,y,kx_vn);//2,0 
.................... //!   } 
.................... //!   if(ht_tp) lcd_hien_thi_2so_tp_nho(kc_tp,x+1,y+6);   
.................... //!} 
.................... //!//xxxxxxxxxxxxxxxxxxxxxxxxxxxxxxxxxxxxxxxxxxxxxxxxxxxxxxxx 
.................... //!void b721_adc_cbkc_gp2d12_all(usi8 solan,x,y,z,int1 ht_l7d,ht_lcd,ht_tp)                                      
.................... //!{ 
.................... //!   h721_adc_cbkc_gp2d12_doc_xuly(solan); 
.................... //!   h721_adc_cbkc_gp2d12_ht_lcd_7doan(x,y,z,ht_l7d,ht_lcd,ht_tp); 
.................... //!}     
.................... //xxxxxxxxxxxxxxxxxxxxxxxxxxxxxxxxxxxxxxxxxxxxxxxxxxxxxxxx   
.................... //xxxxxxxxxxxxxxxxxxxxxxxxxxxxxxxxxxxxxxxxxxxxxxxxxxxxxxxx 
.................... //ham 721: do nhiet lm35a, lm35b, dkhien den, bao dong 
.................... //xxxxxxxxxxxxxxxxxxxxxxxxxxxxxxxxxxxxxxxxxxxxxxxxxxxxxxxx   
.................... //xxxxxxxxxxxxxxxxxxxxxxxxxxxxxxxxxxxxxxxxxxxxxxxxxxxxxxxx   
....................   
.................... //!void b722_adc_lm35a_lm35a_joystick_cbkc()                                      
.................... //!{                                                         
.................... //!      giaima_bin_2so_vitri_vn(lm35b/1,2,kx_vn);                                               
.................... //!      giaima_bin_2so_vitri_vn(lm35a/1,0,kx_vn);                 
.................... //!      xuat_8led_7doan();                                                  
.................... //!      h701_lcd_hien_thi_so_tp(lm35a,1,0,sole_1);   
.................... //!      h701_lcd_hien_thi_so_tp(lm35b,1,7,sole_1);     
.................... //!      h701_lcd_hien_thi_so_tp(vrx,3,0,sole_1);          
.................... //!      h701_lcd_hien_thi_so_tp(vry,3,7,sole_1);           
.................... //!      h701_lcd_hien_thi_so_tp(cb_kc,1,14,sole_1);                           
.................... //!}      
.................... //xxxxxxxxxxxxxxxxxxxxxxxxxxxxxxxxxxxxxxxxxxxxxxxxxxxxxxxx 
.................... //ham 721: do nhiet lm35a, lm35b, dkhien den, bao dong 
.................... //xxxxxxxxxxxxxxxxxxxxxxxxxxxxxxxxxxxxxxxxxxxxxxxxxxxxxxxx   
.................... //!//xxxxxxxxxxxxxxxxxxxxxxxxxxxxxxxxxxxxxxxxxxxxxxxxxxxxxxxx 
.................... //!void h731_lcd_hien_thi_hcsr04(usi8 x,y)                             
.................... //!{                                              
.................... //!   lcd_goto_xy(x,y);                                                         
.................... //!   lcd_data("HCSR04");                                            
.................... //!}               
.................... //!void h731_hcsr04_do_khoangcach()                               
.................... //!{                                                              
.................... //!   output_high(trig);       
.................... //!   delay_us(20);    
.................... //!   output_low(trig);           
.................... //!                                            
.................... //!   set_timer3(0);                                           
.................... //!   while(!(input(echo)));          
.................... //!   setup_timer_3(t3_internal|t3_div_by_8);   
.................... //!                                 
.................... //!   while(input(echo));                                    
.................... //!   setup_timer_3(t3_disabled); 
.................... //!                                                  
.................... //!} 
.................... //! 
.................... //!usi16 gt_t3,kcsa_ng,kcsa_tp,kcsa_ngt=0; 
.................... //!void h731_cbkc_hc04_do_xuly()                                      
.................... //!{                   
.................... //!   float kcsa;   
.................... //!   h731_hcsr04_do_khoangcach(); 
.................... //!   gt_t3 = get_timer3(); 
.................... //!  
.................... //!   kcsa = gt_t3*1.6;                                               
.................... //!   kcsa = (kcsa/58); 
.................... //!    
.................... //!   h701_foat_to_ng_2so_tp(kcsa);       
.................... //!   kcsa_ng = so_ng; 
.................... //!   kcsa_tp = so_tp;  
.................... //!} 
.................... //! 
.................... //!void h731_cbkc_hc04_ht_lcd_7doan(usi8 x,y,z,int1 ht_l7d,ht_lcd)                                      
.................... //!{                     
.................... //!   if(kcsa_ngt!=kcsa_ng) 
.................... //!   { 
.................... //!      kcsa_ngt=kcsa_ng; 
.................... //!      if(ht_l7d)         
.................... //!      {   
.................... //!         giaima_bin_4so_vitri_vn(kcsa_ng,z,cx_vn); //0 
.................... //!         xuat_8led_7doan(); 
.................... //!      } 
.................... //!      if(ht_lcd)lcd_gm_ht_4so_to_xvn(kcsa_ng,x,y,kx_vn);//2,8 
.................... //!   }   
.................... //!} 
.................... //! 
.................... //!void h731_cbkc_hc04_all(usi8 x,y,z,int1 ht_l7d,ht_lcd)                                      
.................... //!{     
.................... //!   h731_cbkc_hc04_do_xuly(); 
.................... //!   h731_cbkc_hc04_ht_lcd_7doan(x,y,z,ht_l7d,ht_lcd); 
.................... //!} 
.................... //!//xxxxxxxxxxxxxxxxxxxxxxxxxxxxxxxxxxxxxxxxxxxxxxxxxxxxxxxx 
.................... //! 
.................... //!//xxxxxxxxxxxxxxxxxxxxxxxxxxxxxxxxxxxxxxxxxxxxxxxxxxxxxxxx 
.................... //!void b761_ket_hop_5_module()                             
.................... //!{                                                                   
.................... //!     //b622_glcd_dem_giay_kim_c1();      
.................... //!     //b536_lcd_dem_xung_timer0_so_to(); 
.................... //!     b424_gpg_3bt(20,10);                  
.................... //!     b351_32led_4yc_tu_dong_if();             
....................      //h761_adc_lm35a_lm35b_joystick_cbkc_hc04();   
.................... //!}                                                  
.................... //!//xxxxxxxxxxxxxxxxxxxxxxxxxxxxxxxxxxxxxxxxxxxxxxxxxxxxxxxx 
.................... //!//bai 643: ham chinh ket hop 32 led, 8 led 7doan, lcd, glcd         
.................... //!//xxxxxxxxxxxxxxxxxxxxxxxxxxxxxxxxxxxxxxxxxxxxxxxxxxxxxxxx   
.................... //!void b742_lcd_dem_xung_timer0_so_to()                                                   
.................... //!{                                                                       
.................... //!   t0 = get_timer0();                                       
.................... //!   if(t0!=t0_tam)               
.................... //!   {                                                          
.................... //!      giaima_bin_3so_vitri_vn(t0,0,cx_vn);            
.................... //!      h536_giai_ma_ht_so_to(t0);  
.................... //!      //h603_glcd_giai_ma_hien_thi(glcd_addr_line1,t0);  
.................... //!      t0_tam = t0;                    
.................... //!   }                                                                                
.................... //!   if (t0>=120)   set_timer0(0);                                                  
.................... //!}  
.................... //!  
.................... //!void b742_ket_hop_5_module()                             
.................... //!{                                                                   
.................... //!     //b622_glcd_dem_giay_kim_c1(); 
.................... //!      
.................... //!     b742_lcd_dem_xung_timer0_so_to(); 
.................... //!     b424_gpg_3bt(20,10);                  
.................... //!     b351_32led_4yc_tu_dong_if();                                               
.................... //!} 
.................... //!  
.................... //!           
....................  
.................... #include <tv_07_ds18b20.c>  
.................... //xxxxxxxxxxxxxxxxxxxxxxxxxxxxxxxxxxxxxxxxxxxxxxxxxxxxxxxx 
.................... //NGUYEN DINH PHU SU PHAM KY THUAT TP HCM 
.................... //xxxxxxxxxxxxxxxxxxxxxxxxxxxxxxxxxxxxxxxxxxxxxxxxxxxxxxxx 
....................  
.................... //xxxxxxxxxxxxxxxxxxxxxxxxxxxxxxxxxxxxxxxxxxxxxxxxxxxxxxxx 
.................... //dinh nghia chan giao tiep, thu vien, cac lenh ds13b20       
.................... //xxxxxxxxxxxxxxxxxxxxxxxxxxxxxxxxxxxxxxxxxxxxxxxxxxxxxxxx  
.................... #define  touch_pin pin_a5   
.................... #include <touch.c>                               
.................... /////////////////////////////////////////////////////////////////////////// 
.................... ////                        Dallas Touch Driver                        //// 
.................... ////                                                                   //// 
.................... ////                                                                   //// 
.................... ////  data = touch_read_bit()     Reads one bit from a touch device    //// 
.................... ////                                                                   //// 
.................... ////  data = touch_read_BYTE()    Reads one byte from a touch device.  //// 
.................... ////                                                                   //// 
.................... ////  ok = touch_write_bit(data)  Writes one bit to a touch device     //// 
.................... ////                              and returns true if all went ok.     //// 
.................... ////                              A false indicates a collision with   //// 
.................... ////                              another device.                      //// 
.................... ////                                                                   //// 
.................... ////  ok = touch_write_byte(data) Writes one byte to a touch device    //// 
.................... ////                              and returns true if all went ok.     //// 
.................... ////                              A false indicates a collision with   //// 
.................... ////                              another device.                      //// 
.................... ////                                                                   //// 
.................... ////  present = touch_present()   Issues a reset and returns true      //// 
.................... ////                              if the touch device is there.        //// 
.................... ////                                                                   //// 
.................... ////  reset_pulse()               Issues a reset and waits for a       //// 
.................... ////                              present pulse.                       //// 
.................... ////                                                                   //// 
.................... /////////////////////////////////////////////////////////////////////////// 
.................... ////        (C) Copyright 1996,2010 Custom Computer Services           //// 
.................... //// This source code may only be used by licensed users of the CCS C  //// 
.................... //// compiler.  This source code may only be distributed to other      //// 
.................... //// licensed users of the CCS C compiler.  No other use, reproduction //// 
.................... //// or distribution is permitted without written permission.          //// 
.................... //// Derivative programs created using this software in object code    //// 
.................... //// form are not restricted in any way.                               //// 
.................... /////////////////////////////////////////////////////////////////////////// 
....................  
.................... #ifndef  TOUCH_C 
.................... #define  TOUCH_C 
....................  
.................... #ifndef TOUCH_PIN 
....................    #define TOUCH_PIN  PIN_B0 
.................... #endif 
....................  
.................... #define TOUCH_PIN_LOW()    output_drive(TOUCH_PIN); output_low(TOUCH_PIN) 
.................... #define TOUCH_PIN_HIGH()    output_drive(TOUCH_PIN); output_high(TOUCH_PIN) 
.................... #define TOUCH_PIN_FLOAT()  output_float(TOUCH_PIN) 
.................... #define TOUCH_PIN_READ()      input_state(TOUCH_PIN) 
....................  
.................... ///////////////////////////// 
.................... ////                     //// 
.................... //// Function Prototypes //// 
.................... ////                     //// 
.................... ///////////////////////////// 
....................  
.................... /* 
.................... int1 touch_read_bit() 
.................... This will read back a bit from the DS1993 
.................... PARAMS: none 
.................... RETURNS: A bit from the DS1993 
.................... */ 
.................... int1 touch_read_bit(); 
....................  
.................... /* 
.................... BYTE touch_read_byte() 
.................... This will read back a byte from the DS1993 
.................... PARAMS: none 
.................... RETURNS: A byte from the DS1993 
.................... */ 
.................... BYTE touch_read_byte(); 
....................  
.................... /* 
.................... BOOLEAN touch_write_bit(int1 data) 
.................... This will write a bit to the DS1993 
.................... PARAMS: The bit to write 
.................... RETURNS: True if completed successfully, false if otherwise 
.................... */ 
.................... BOOLEAN touch_write_bit(int1 data); 
....................  
.................... /* 
.................... BOOLEAN touch_write_byte(BYTE data) 
.................... This will write a byte to the DS1993 
.................... PARAMS: The byte to write 
.................... RETURNS: True if completed successfully, false if otherwise 
.................... */ 
.................... BOOLEAN touch_write_byte(BYTE data); 
....................  
.................... /* 
.................... BOOLEAN touch_present() 
.................... This will evaluate whether or not there is a touch present on the DS1993 
.................... PARAMS: none 
.................... RETURNS: True if a touch is present, false if otherwise 
.................... */ 
.................... BOOLEAN touch_present(); 
....................  
.................... /* 
.................... void reset_pulse() 
.................... This will send the DS1993 a reset pulse 
.................... PARAMS: none 
.................... RETURNS: none 
.................... */ 
.................... void reset_pulse(); 
....................  
.................... ////////////////////////////////// 
.................... ////                          //// 
.................... //// Function Implementations //// 
.................... ////                          //// 
.................... ////////////////////////////////// 
....................  
.................... /* 
.................... int1 touch_read_bit() 
.................... This will read back a bit from the DS1993 
.................... PARAMS: none 
.................... RETURNS: A bit from the DS1993 
.................... */ 
.................... int1 touch_read_bit() 
.................... { 
....................    int1 data; 
....................  
....................    TOUCH_PIN_LOW(); 
....................    delay_us(14); 
....................    TOUCH_PIN_FLOAT(); 
....................    delay_us(5); 
....................    data = TOUCH_PIN_READ(); 
....................    delay_us(100); 
....................  
....................    return data; 
.................... } 
....................  
.................... /* 
.................... BYTE touch_read_byte() 
.................... This will read back a byte from the DS1993 
.................... PARAMS: none 
.................... RETURNS: A byte from the DS1993 
.................... */ 
.................... BYTE touch_read_byte() 
.................... { 
....................    BYTE i,data; 
....................  
....................    for(i=1; i <= 8; ++i) 
....................       shift_right(&data, 1, touch_read_bit()); 
....................  
....................    return data; 
.................... } 
....................  
.................... /* 
.................... BOOLEAN touch_write_bit(int1 data) 
.................... This will write a bit to the DS1993 
.................... PARAMS: The bit to write 
.................... RETURNS: True if completed successfully, false if otherwise 
.................... */ 
.................... BOOLEAN touch_write_bit(int1 data) 
.................... { 
....................    TOUCH_PIN_LOW(); 
....................    delay_us(10); 
....................    if(data) 
....................    { 
....................       TOUCH_PIN_HIGH(); 
....................       delay_us(10); 
....................       if(!TOUCH_PIN_READ()) 
....................          return FALSE; 
....................    } 
....................    else 
....................    { 
....................       TOUCH_PIN_LOW(); 
....................       delay_us(10); 
....................       if(TOUCH_PIN_READ()) 
....................          return FALSE; 
....................    } 
....................    delay_us(50); 
....................    TOUCH_PIN_HIGH(); 
....................    delay_us(50); 
....................    return TRUE; 
.................... } 
....................  
.................... /* 
.................... BOOLEAN touch_write_byte(BYTE data) 
.................... This will write a byte to the DS1993 
.................... PARAMS: The byte to write 
.................... RETURNS: True if completed successfully, false if otherwise 
.................... */ 
.................... BOOLEAN touch_write_byte(BYTE data) 
.................... { 
....................    BYTE i; 
....................  
....................    for(i=1; i<=8; ++i) 
....................       if(!touch_write_bit(shift_right(&data, 1, 0))) 
....................          return FALSE; 
....................  
....................    return TRUE; 
.................... } 
....................  
.................... /* 
.................... BOOLEAN touch_present() 
.................... This will evaluate whether or not there is a touch present on the DS1993 
.................... PARAMS: none 
.................... RETURNS: True if a touch is present, false if otherwise 
.................... */ 
.................... BOOLEAN touch_present() 
.................... { 
....................    BOOLEAN present; 
....................    TOUCH_PIN_LOW(); 
....................    delay_us(500); 
....................    TOUCH_PIN_FLOAT(); 
....................    delay_us(5); 
....................  
....................    if(!TOUCH_PIN_READ()) 
....................       return FALSE; 
....................  
....................    delay_us(65); 
....................    present = !TOUCH_PIN_READ(); 
....................    delay_us(240); 
....................    return present; 
.................... } 
....................  
.................... /* 
.................... void reset_pulse() 
.................... This will send the DS1993 a reset pulse 
.................... PARAMS: none 
.................... RETURNS: none 
.................... */ 
.................... void reset_pulse() 
.................... { 
....................    TOUCH_PIN_LOW(); 
....................    delay_us(500); 
....................    TOUCH_PIN_FLOAT(); 
....................    delay_us(5); 
....................    while(!touch_present()); 
.................... } 
....................  
....................  
.................... #endif 
....................  
.................... #define  search_rom       0xf0 
.................... #define  read_rom         0x33 
.................... #define  match_rom        0x55     
.................... #define  skip_rom         0xcc 
.................... #define  alarm_search     0xec 
.................... #define  read_scratchpad  0xbe  
.................... #define  write_scratchpad 0x4e                                
.................... #define  copy_scratchpad  0x48   
.................... #define  convert_t        0x44  
.................... //xxxxxxxxxxxxxxxxxxxxxxxxxxxxxxxxxxxxxxxxxxxxxxxxxxxxxxxx 
.................... //Thong bao khong co ds13b20       
.................... //xxxxxxxxxxxxxxxxxxxxxxxxxxxxxxxxxxxxxxxxxxxxxxxxxxxxxxxx  
.................... void ds18b20_no_ds18b(usi8 x,y)  
.................... {    
....................    lcd_goto_xy(x,y);        
....................    lcd_data("NO DS18B20");  
.................... }  
.................... //xxxxxxxxxxxxxxxxxxxxxxxxxxxxxxxxxxxxxxxxxxxxxxxxxxxxxxxx 
.................... //ham khoi tao ds13b20       
.................... //xxxxxxxxxxxxxxxxxxxxxxxxxxxxxxxxxxxxxxxxxxxxxxxxxxxxxxxx  
.................... void ds18b20_khoi_tao() 
.................... {                          
....................    touch_present(); 
....................    touch_write_byte(skip_rom);       
....................    touch_write_byte(write_scratchpad);                      
....................    touch_write_byte(0x0);        
....................    touch_write_byte(0x0);     
....................    touch_write_byte(0x7f); //12 bit 
....................  
....................    touch_present();    
....................    touch_write_byte(skip_rom); 
....................    touch_write_byte(convert_t);      
.................... } 
.................... //xxxxxxxxxxxxxxxxxxxxxxxxxxxxxxxxxxxxxxxxxxxxxxxxxxxxxxxx 
.................... //doc nhiet do tu ds13b20, tra ve nhiet do la 16 bit     
.................... //xxxxxxxxxxxxxxxxxxxxxxxxxxxxxxxxxxxxxxxxxxxxxxxxxxxxxxxx                                                  
.................... unsigned int16 ds18b20_read_temp()                                         
.................... {                                     
....................    unsigned int8  bl,bh;                                                              
....................    unsigned int16 w;  
....................    touch_write_byte(skip_rom); 
....................    touch_write_byte(read_scratchpad);                  
....................    bl = touch_read_byte(); 
....................    bh = touch_read_byte();                              
....................    w  = make16(bh,bl);                                                           
....................                                                          
....................    touch_present();    
....................    touch_write_byte(skip_rom); 
....................    touch_write_byte(convert_t);  
....................    return w; 
.................... }   
.................... //xxxxxxxxxxxxxxxxxxxxxxxxxxxxxxxxxxxxxxxxxxxxxxxxxxxxxxxx 
.................... //ham doc ma ROM cua DS18b20 va hien thi tai hang x, cot y  
.................... //xxxxxxxxxxxxxxxxxxxxxxxxxxxxxxxxxxxxxxxxxxxxxxxxxxxxxxxx     
.................... void ds18b20_doc_rom(usi8 x,y)   
.................... {     
....................    unsigned int8 rom_code[8];        
....................    unsigned int8 xh,xl; 
....................    signed int8 i; 
....................    if(touch_present()) 
....................    { 
....................       touch_write_byte(read_rom);                                                                             
....................       for(i=0;i<8;i++)                  
....................       rom_code[i] = touch_read_byte();                                  
....................       lcd_goto_xy(x,y);      
....................       for(i=7;i>-1;i--)  
....................       { 
....................          xh=rom_code[i]/16;               
....................          if(xh>9) xh=xh+0x37; 
....................          else     xh=xh+0x30;           
....................          xl=rom_code[i]%16;               
....................          if(xl>9) xl=xl+0x37; 
....................          else     xl=xl+0x30; 
....................                         
....................          lcd_data(xh); 
....................          lcd_data(xl);          
....................       }         
....................    } 
....................    else ds18b20_no_ds18b(0,0);      
.................... } 
....................  
.................... #include <tv_07_i2c_at24cxx.c>     
.................... //xxxxxxxxxxxxxxxxxxxxxxxxxxxxxxxxxxxxxxxxxxxxxxxxxxxxxxxx 
.................... //NGUYEN DINH PHU SU PHAM KY THUAT TP HCM 
.................... //xxxxxxxxxxxxxxxxxxxxxxxxxxxxxxxxxxxxxxxxxxxxxxxxxxxxxxxx 
....................  
.................... #define at24_addr_wr 0xa0 
.................... #define at24_addr_rd 0xa1 
.................... //xxxxxxxxxxxxxxxxxxxxxxxxxxxxxxxxxxxxxxxxxxxxxxxxxxxxxxxx 
.................... //ham reset  
.................... //xxxxxxxxxxxxxxxxxxxxxxxxxxxxxxxxxxxxxxxxxxxxxxxxxxxxxxxx 
.................... void at24_reset() 
.................... {                 
....................    i2c_start();          
....................    i2c_stop(); 
.................... } 
.................... //xxxxxxxxxxxxxxxxxxxxxxxxxxxxxxxxxxxxxxxxxxxxxxxxxxxxxxxx 
.................... //ham khoi tao ghi 
.................... //xxxxxxxxxxxxxxxxxxxxxxxxxxxxxxxxxxxxxxxxxxxxxxxxxxxxxxxx 
.................... void at24_khoi_tao_ghi(usi16 addr) 
.................... {                  
....................    i2c_start();                        
....................    i2c_write(at24_addr_wr);   
....................    i2c_write(addr>>8);          
....................    i2c_write(addr);          
.................... } 
.................... //xxxxxxxxxxxxxxxxxxxxxxxxxxxxxxxxxxxxxxxxxxxxxxxxxxxxxxxx 
.................... //ham khoi tao doc 
.................... //xxxxxxxxxxxxxxxxxxxxxxxxxxxxxxxxxxxxxxxxxxxxxxxxxxxxxxxx     
.................... void at24_khoi_tao_doc(usi16 addr) 
.................... {    
....................    i2c_start(); 
....................    i2c_write(at24_addr_wr);   
....................    i2c_write(addr>>8);         
....................    i2c_write(addr);            
....................    i2c_start();                 
....................    i2c_write(at24_addr_rd);   
.................... }     
.................... //xxxxxxxxxxxxxxxxxxxxxxxxxxxxxxxxxxxxxxxxxxxxxxxxxxxxxxxx 
.................... //ham ghi 1byte 
.................... //xxxxxxxxxxxxxxxxxxxxxxxxxxxxxxxxxxxxxxxxxxxxxxxxxxxxxxxx 
.................... void at24_ghi_1byte(usi16 addr,usi8 data_1byte) 
.................... {           
....................    i2c_start();                      
....................    i2c_write(at24_addr_wr);   
....................    i2c_write(addr>>8);          
....................    i2c_write(addr);    
....................    i2c_write(data_1byte);    
....................    i2c_stop(); 
.................... } 
.................... //xxxxxxxxxxxxxxxxxxxxxxxxxxxxxxxxxxxxxxxxxxxxxxxxxxxxxxxx 
.................... //ham doc 1 byte 
.................... //xxxxxxxxxxxxxxxxxxxxxxxxxxxxxxxxxxxxxxxxxxxxxxxxxxxxxxxx 
.................... unsigned int8 at24_doc_1byte(usi16 addr) 
.................... {    
....................    unsigned int8 data_1byte; 
....................    i2c_start();            
....................    i2c_write(at24_addr_wr);   
....................    i2c_write(addr>>8);         
....................    i2c_write(addr);            
....................    i2c_start();                 
....................    i2c_write(at24_addr_rd);   
....................    data_1byte = i2c_read(0); 
....................    i2c_stop(); 
....................    return(data_1byte); 
.................... }   
....................  
....................  
.................... //!#include <tv_08_step_motor.c>     
.................... //!#include <tv_08_dc_motor.c>  
.................... #include <tv_09_matran_led_mbi.c> 
.................... //xxxxxxxxxxxxxxxxxxxxxxxxxxxxxxxxxxxxxxxxxxxxxxxxxxxxxxxx 
.................... //NGUYEN DINH PHU SU PHAM KY THUAT TP HCM 
.................... //xxxxxxxxxxxxxxxxxxxxxxxxxxxxxxxxxxxxxxxxxxxxxxxxxxxxxxxx 
....................  
.................... //xxxxxxxxxxxxxxxxxxxxxxxxxxxxxxxxxxxxxxxxxxxxxxxxxxxxxxxx 
.................... //ham xuat 2 byte 
.................... //xxxxxxxxxxxxxxxxxxxxxxxxxxxxxxxxxxxxxxxxxxxxxxxxxxxxxxxx 
.................... void xuat_2byte(unsigned int16 v) 
.................... { 
....................    int8 i; 
....................    #bit msb = v.15 
....................    for(i=0;i<16;i++) 
....................    {                                                  
....................       output_bit(ssdo,msb);     
....................       output_low(ssck);    
....................       output_high(ssck); 
....................       v= v<<1;          
....................    } 
.................... } 
.................... //xxxxxxxxxxxxxxxxxxxxxxxxxxxxxxxxxxxxxxxxxxxxxxxxxxxxxxxx 
.................... //chuong trinh con xuat ra led ma tran 
.................... //xxxxxxxxxxxxxxxxxxxxxxxxxxxxxxxxxxxxxxxxxxxxxxxxxxxxxxxx 
.................... void xuat_matranled( usi16 mahang,usi16 macot1, 
....................                      usi16 macot2,usi16 macot3) 
.................... {       
....................    xuat_2byte(macot3);   
....................    xuat_2byte(macot2); 
....................    xuat_2byte(macot1);   
....................    xuat_2byte(mahang); 
....................        
....................    output_high(rck_mtl);  
....................    output_low(rck_mtl); 
.................... } 
.................... //xxxxxxxxxxxxxxxxxxxxxxxxxxxxxxxxxxxxxxxxxxxx 
.................... //chuong trinh con xuat ra led ma tran 
.................... //xxxxxxxxxxxxxxxxxxxxxxxxxxxxxxxxxxxxxxxxxxxx 
.................... // void tat_matranled() 
.................... // {       
....................    // xuat_2byte(0); xuat_2byte(0); 
....................    // xuat_2byte(0); xuat_2byte(0);            
....................    // output_high(rck_matranled);  
....................    // output_low(rck_matranled); 
.................... // } 
.................... //xxxxxxxxxxxxxxxxxxxxxxxxxxxxxxxxxxxxxxxxxxxxxxxxxxxxxxxx 
.................... //hieu chinh 4bit cao 
.................... //xxxxxxxxxxxxxxxxxxxxxxxxxxxxxxxxxxxxxxxxxxxxxxxxxxxxxxxx 
.................... unsigned  int8 hieu_chinh_4bit_cao(unsigned int8 xzy) 
.................... { 
....................    int1  btg; 
....................    unsigned int8   bx;    
....................    #bit bit4  = bx.4 
....................    #bit bit5  = bx.5 
....................    #bit bit6  = bx.6 
....................    #bit bit7  = bx.7 
....................    bx=xzy; 
....................    btg=bit4;   bit4=bit7;  bit7=btg; 
....................    btg=bit5;   bit5=bit6;  bit6=btg;       
....................    return(bx);   
.................... }    
....................  
....................  
....................  
.................... #include<tv_06_glcd.c> 
.................... //xxxxxxxxxxxxxxxxxxxxxxxxxxxxxxxxxxxxxxxxxxxxxxxxxxxxxxxx 
.................... //NGUYEN DINH PHU SU PHAM KY THUAT TP HCM 
.................... //xxxxxxxxxxxxxxxxxxxxxxxxxxxxxxxxxxxxxxxxxxxxxxxxxxxxxxxx 
....................  
.................... //xxxxxxxxxxxxxxxxxxxxxxxxxxxxxxxxxxxxxxxxxxxxxxxxxxxxxxxx 
.................... //dinh nghia bien dieu khien GLCD va cac bit cua bien       
.................... //xxxxxxxxxxxxxxxxxxxxxxxxxxxxxxxxxxxxxxxxxxxxxxxxxxxxxxxx  
.................... unsigned int8 glcd_ctr;    
.................... #bit glcd_p    = glcd_ctr.5            
.................... #bit glcd_rs   = glcd_ctr.4 
.................... #bit glcd_rw   = glcd_ctr.3 
.................... #bit glcd_e    = glcd_ctr.2 
.................... #bit glcd_nc   = glcd_ctr.1 
.................... #bit glcd_psb  = glcd_ctr.0                              
.................... //xxxxxxxxxxxxxxxxxxxxxxxxxxxxxxxxxxxxxxxxxxxxxxxxxxxxxxxx 
.................... //Dinh nghia cac lenh dieu khien cua GLCD 
.................... //xxxxxxxxxxxxxxxxxxxxxxxxxxxxxxxxxxxxxxxxxxxxxxxxxxxxxxxx  
.................... #define glcd_text_mode      0x30 
.................... #define glcd_graphic_mode   0x36                      
....................  
.................... #define glcd_clear_display  0x01 
.................... #define glcd_cursor_display 0x0c 
.................... #define glcd_entry_mode     0x06 
....................  
.................... #define glcd_addr_line0     0x80 
.................... #define glcd_addr_line1     0x90 
.................... #define glcd_addr_line2     0x88 
.................... #define glcd_addr_line3     0x98 
.................... //xxxxxxxxxxxxxxxxxxxxxxxxxxxxxxxxxxxxxxxxxxxxxxxxxxxxxxxx   
.................... //ham 621: xuat data/lenh ra glcd 
.................... //xxxxxxxxxxxxxxxxxxxxxxxxxxxxxxxxxxxxxxxxxxxxxxxxxxxxxxxx    
.................... void glcd_xuat_db(int8 db) 
.................... { 
....................    glcd_e=1; xuat_glcd(glcd_ctr,db);  
*
059E:  BSF    32.2
05A0:  MOVFF  32,448
05A4:  MOVFF  447,449
05A8:  RCALL  058A
....................    delay_us(20); 
05AA:  MOVLW  20
05AC:  MOVWF  00
05AE:  DECFSZ 00,F
05B0:  BRA    05AE
05B2:  BRA    05B4
05B4:  NOP   
....................    glcd_e=0; xuat_glcd(glcd_ctr,db);   
05B6:  BCF    32.2
05B8:  MOVFF  32,448
05BC:  MOVFF  447,449
05C0:  RCALL  058A
05C2:  RETURN 0
.................... }                                  
.................... //xxxxxxxxxxxxxxxxxxxxxxxxxxxxxxxxxxxxxxxxxxxxxxxxxxxxxxxx   
.................... //ham 622: xuat lenh ra glcd     
.................... //xxxxxxxxxxxxxxxxxxxxxxxxxxxxxxxxxxxxxxxxxxxxxxxxxxxxxxxx   
.................... void glcd_command(int8 db)    
.................... { 
....................    glcd_rs = 0; 
05C4:  BCF    32.4
....................    glcd_xuat_db(db);       
05C6:  MOVFF  445,447
05CA:  RCALL  059E
05CC:  RETURN 0
.................... } 
.................... //xxxxxxxxxxxxxxxxxxxxxxxxxxxxxxxxxxxxxxxxxxxxxxxxxxxxxxxx   
.................... //ham 623: xuat data ra glcd 
.................... //xxxxxxxxxxxxxxxxxxxxxxxxxxxxxxxxxxxxxxxxxxxxxxxxxxxxxxxx  
.................... void glcd_data(int8 db)                  
.................... { 
....................    glcd_rs = 1;      
*
0628:  BSF    32.4
....................    glcd_xuat_db(db);      
062A:  MOVFF  446,447
062E:  RCALL  059E
0630:  RETURN 0
.................... }  
.................... //xxxxxxxxxxxxxxxxxxxxxxxxxxxxxxxxxxxxxxxxxxxxxxxxxxxxxxxx   
.................... //ham 624: khoi tao GLCD  
.................... //xxxxxxxxxxxxxxxxxxxxxxxxxxxxxxxxxxxxxxxxxxxxxxxxxxxxxxxx    
.................... void glcd_setup (int8 glcd_fs_mode) 
.................... {                      
....................    glcd_psb = 1; 
*
05CE:  BSF    32.0
....................    glcd_nc = 1;                              
05D0:  BSF    32.1
....................    glcd_e  = 0; 
05D2:  BCF    32.2
....................    glcd_rw = 0;           
05D4:  BCF    32.3
....................    glcd_p =0;          
05D6:  BCF    32.5
....................    glcd_command(glcd_fs_mode);          
05D8:  MOVFF  442,445
05DC:  RCALL  05C4
....................    delay_us(10); 
05DE:  MOVLW  10
05E0:  MOVWF  00
05E2:  DECFSZ 00,F
05E4:  BRA    05E2
05E6:  NOP   
....................    glcd_command(glcd_cursor_display);        
05E8:  MOVLW  0C
05EA:  MOVLB  4
05EC:  MOVWF  x45
05EE:  MOVLB  0
05F0:  RCALL  05C4
....................    delay_us(10);     
05F2:  MOVLW  10
05F4:  MOVWF  00
05F6:  DECFSZ 00,F
05F8:  BRA    05F6
05FA:  NOP   
....................    glcd_command(glcd_clear_display);       
05FC:  MOVLW  01
05FE:  MOVLB  4
0600:  MOVWF  x45
0602:  MOVLB  0
0604:  RCALL  05C4
....................    delay_ms(10);                                           
0606:  MOVLW  0A
0608:  MOVLB  4
060A:  MOVWF  x45
060C:  MOVLB  0
060E:  RCALL  02CA
....................    glcd_command(glcd_entry_mode);       
0610:  MOVLW  06
0612:  MOVLB  4
0614:  MOVWF  x45
0616:  MOVLB  0
0618:  RCALL  05C4
....................    delay_us(10);                                                
061A:  MOVLW  10
061C:  MOVWF  00
061E:  DECFSZ 00,F
0620:  BRA    061E
0622:  NOP   
0624:  GOTO   0DCC (RETURN)
.................... } 
.................... //xxxxxxxxxxxxxxxxxxxxxxxxxxxxxxxxxxxxxxxxxxxxxxxxxxxxxxxx   
.................... //ham 608: xuat data ra glcd 
.................... //xxxxxxxxxxxxxxxxxxxxxxxxxxxxxxxxxxxxxxxxxxxxxxxxxxxxxxxx  
.................... void glcd_clear()                  
.................... {    
....................    glcd_command(glcd_clear_display);       
....................    delay_ms(10);      
.................... }   
.................... void glcd_text_or_graphic(int8 x)                  
.................... {                                    
....................    glcd_command(x);          
....................    delay_us(10);      
.................... } 
.................... //xxxxxxxxxxxxxxxxxxxxxxxxxxxxxxxxxxxxxxxxxxxxxxxxxxxxxxxx 
.................... //dinh nghia cac hang so kich thuoc hinh anh cua GLCD        
.................... //xxxxxxxxxxxxxxxxxxxxxxxxxxxxxxxxxxxxxxxxxxxxxxxxxxxxxxxx      
.................... #define glcd_ngang  16 //16x16=256 pixel 
.................... #define glcd_doc    32 //32 hang 
.................... #define glcd_width  128 //danh cho thu vien graphic.c 
.................... int8 doc, ngang; 
.................... //xxxxxxxxxxxxxxxxxxxxxxxxxxxxxxxxxxxxxxxxxxxxxxxxxxxxxxxx 
.................... //xay dung loai du lieu dots: dung de xu diem anh 
.................... //dang word va byte de de truy xuat 
.................... //xxxxxxxxxxxxxxxxxxxxxxxxxxxxxxxxxxxxxxxxxxxxxxxxxxxxxxxx                               
.................... typedef union  
.................... {  
....................   unsigned int16 word;  
....................   unsigned int8 nbyte[2];  
.................... } dots;      
....................  
.................... //xxxxxxxxxxxxxxxxxxxxxxxxxxxxxxxxxxxxxxxxxxxxxxxxxxxxxxxx 
.................... //xay dung loai du lieu gd_ram kieu co cau truc "struct"       
.................... //xxxxxxxxxxxxxxxxxxxxxxxxxxxxxxxxxxxxxxxxxxxxxxxxxxxxxxxx      
.................... typedef struct  
.................... {  
....................   int1 refresh;  
....................   dots pixel[glcd_doc][glcd_ngang];     
.................... } gd_ram;       
.................... gd_ram gdram_vdk;  
.................... //xxxxxxxxxxxxxxxxxxxxxxxxxxxxxxxxxxxxxxxxxxxxxxxxxxxxxxxx 
.................... //ham 610: xoa vung nho gdram_vdk cung mau glcd_color   
.................... //nhung chua xuat ra GLCD  
.................... //xxxxxxxxxxxxxxxxxxxxxxxxxxxxxxxxxxxxxxxxxxxxxxxxxxxxxxxx    
.................... void glcd_mau_nen(int1 glcd_color)  
.................... {   
....................   int16 d;  
....................   if(glcd_color)  d=0xffff; else d=0; 
....................   for (doc=0; doc<glcd_doc; doc++)  
....................   {  
....................     for (ngang=0; ngang<glcd_ngang; ngang++)  
....................     {  
....................       gdram_vdk.pixel[doc][ngang].word = d;  
....................     }  
....................   }  
....................   gdram_vdk.refresh = true;  
.................... }  
.................... //xxxxxxxxxxxxxxxxxxxxxxxxxxxxxxxxxxxxxxxxxxxxxxxxxxxxxxxx 
.................... //ham 610: lam 1 pixel co mau la color nhung chua xuat ra GLCD       
.................... //xxxxxxxxxxxxxxxxxxxxxxxxxxxxxxxxxxxxxxxxxxxxxxxxxxxxxxxx    
.................... void glcd_pixel(int8 x, int8 y, int1 color)                      
.................... {  
....................   int8  b;  
....................   if(y>31){x += 128; y-= 32;};                  
....................   doc = y;  
....................   ngang = x/16;                                          
....................   b = 15 - (x % 16);    
....................   if(color==1) bit_set(gdram_vdk.pixel[doc][ngang].word,b);  
....................   else         bit_clear(gdram_vdk.pixel[doc][ngang].word,b);  
....................   gdram_vdk.refresh = true;      
.................... }  
.................... //xxxxxxxxxxxxxxxxxxxxxxxxxxxxxxxxxxxxxxxxxxxxxxxxxxxxxxxx 
.................... //ham 610: ham xuat toan bo du lieu 16x32=512word ra GLCD       
.................... //xxxxxxxxxxxxxxxxxxxxxxxxxxxxxxxxxxxxxxxxxxxxxxxxxxxxxxxx    
.................... void gdram_vdk_to_gdram_glcd_all()  
.................... {  
....................   if(gdram_vdk.refresh)  
....................   {  
....................     for(doc=0; doc<glcd_doc; doc++)  
....................     {  
....................       glcd_command(0x80+doc);   // set vertical address.  
....................       glcd_command(0x80+0);   // set horizontal address.  
....................  
....................       for(ngang=0; ngang<glcd_ngang; ngang++)  
....................       {                                   
....................         glcd_data(gdram_vdk.pixel[doc][ngang].nbyte[1]);     
....................         glcd_data(gdram_vdk.pixel[doc][ngang].nbyte[0]);     
....................       }  
....................     }  
....................     gdram_vdk.refresh = false;  
....................   }  
.................... }  
.................... //xxxxxxxxxxxxxxxxxxxxxxxxxxxxxxxxxxxxxxxxxxxxxxxxxxxxxxxx 
.................... //ham 610: ham xuat 1 vung du lieu bat dau tai (x,y)  
.................... //va rong va cao ra GLCD                 
.................... //xxxxxxxxxxxxxxxxxxxxxxxxxxxxxxxxxxxxxxxxxxxxxxxxxxxxxxxx  
.................... void gdram_vdk_to_gdram_glcd_area(int8 x, y, rong, cao) 
.................... {                                                  
....................   int8 hesox,hesoy;  
....................   if (gdram_vdk.refresh)  
....................   {        
....................       if(((rong+x)/16)!=0) rong=((rong)/16)+1; 
....................       else                 rong=((rong)/16);  
....................       x = x/16;    
....................        
....................       for(doc=y;doc<(y+cao);doc++)  
....................       {  
....................          if(doc>31) 
....................          {                 
....................             hesoy = doc-32; 
....................             hesox = x+8; 
....................          }                    
....................          else  
....................          { 
....................             hesoy = doc; 
....................             hesox = x; 
....................          } 
....................          glcd_command(0x80+hesoy);    
....................          glcd_command(0x80+hesox);   
....................        
....................          for(ngang=hesox; ngang<(hesox+rong); ngang++)  
....................          {  
....................             glcd_data( gdram_vdk.pixel[hesoy][ngang].nbyte[1]);   // write high byte.  
....................             glcd_data( gdram_vdk.pixel[hesoy][ngang].nbyte[0]);   // write low byte.  
....................          }  
....................        }  
....................     gdram_vdk.refresh = false;  
....................   }       
.................... } 
.................... //xxxxxxxxxxxxxxxxxxxxxxxxxxxxxxxxxxxxxxxxxxxxxxxxxxxxxxxx 
.................... //vung du lieu nhi phan cua anh logo spkt 
.................... //xxxxxxxxxxxxxxxxxxxxxxxxxxxxxxxxxxxxxxxxxxxxxxxxxxxxxxxx    
....................  
.................... const unsigned char logo_spk [] = { 
.................... 0x00, 0x00, 0x00, 0x00, 0x00, 0x00, 0x00, 0x00, 0x00, 0x00, 0x00, 0x00, 0x00, 0x00, 0x00, 0x00, 
.................... 0x00, 0x00, 0x00, 0x00, 0x00, 0x00, 0x00, 0x00, 0x00, 0x00, 0x00, 0x01, 0x80, 0x00, 0x00, 0x00, 
.................... 0x00, 0x00, 0x00, 0x01, 0x80, 0x00, 0x00, 0x00, 0x00, 0x00, 0x00, 0x01, 0x80, 0x00, 0x00, 0x00, 
.................... 0x00, 0x00, 0x00, 0x07, 0xe0, 0x00, 0x00, 0x00, 0x00, 0x00, 0x00, 0x07, 0xa0, 0x00, 0x00, 0x00, 
.................... 0x00, 0x00, 0x00, 0x03, 0x20, 0x00, 0x00, 0x00, 0x00, 0x00, 0x00, 0x03, 0x20, 0x00, 0x00, 0x00, 
....................                                                                     
.................... 0x00, 0x00, 0x00, 0x02, 0x20, 0x00, 0x00, 0x00, 0x00, 0x00, 0x00, 0x02, 0x30, 0x00, 0x00, 0x00, 
.................... 0x00, 0x00, 0x00, 0x02, 0x30, 0x00, 0x00, 0x00, 0x00, 0x7f, 0x00, 0x00, 0x30, 0x00, 0x7e, 0x00, 
.................... 0x00, 0xfe, 0x00, 0x07, 0xe0, 0x00, 0x3f, 0x00, 0x01, 0xf8, 0x00, 0x03, 0xe0, 0x00, 0x1f, 0x80, 
.................... 0x03, 0xf0, 0x00, 0x01, 0xc0, 0x00, 0x0f, 0xc0, 0x03, 0xe0, 0x00, 0x01, 0xc0, 0x00, 0x07, 0xe0, 
.................... 0x07, 0xc0, 0x00, 0x03, 0xc0, 0x00, 0x03, 0xf0, 0x0f, 0xc0, 0x00, 0x17, 0xf4, 0x00, 0x01, 0xf0, 
....................  
.................... 0x0f, 0x80, 0x00, 0x1d, 0x98, 0x00, 0x00, 0xf8, 0x1f, 0x00, 0x00, 0x11, 0x8c, 0x00, 0x00, 0xf8, 
.................... 0x1f, 0x01, 0x00, 0x31, 0x84, 0x00, 0x80, 0x7c, 0x3e, 0x06, 0x00, 0x31, 0x86, 0x00, 0x20, 0x7c, 
.................... 0x3e, 0x18, 0x00, 0x71, 0x86, 0x00, 0x1c, 0x3e, 0x3c, 0x43, 0x00, 0x31, 0x84, 0x00, 0xc3, 0x3e, 
.................... 0x7c, 0x0c, 0x00, 0x11, 0x8c, 0x00, 0x38, 0x1e, 0x7c, 0x31, 0x00, 0x1d, 0x98, 0x00, 0x86, 0x1f, 
.................... 0x78, 0xc6, 0x00, 0x1f, 0xfc, 0x00, 0x63, 0x1f, 0x78, 0x18, 0x00, 0x03, 0xc0, 0x00, 0x0c, 0x1f, 
....................  
.................... 0xf8, 0x63, 0x80, 0x01, 0x80, 0x00, 0xc7, 0x0f, 0xf9, 0x8e, 0x00, 0x00, 0x00, 0x00, 0x38, 0x8f, 
.................... 0xf8, 0x38, 0x80, 0x00, 0x00, 0x01, 0x0c, 0x0f, 0xf8, 0xc3, 0x80, 0x00, 0x00, 0x00, 0xe3, 0x8f, 
.................... 0xf9, 0x8e, 0x00, 0x00, 0x00, 0x00, 0x30, 0xcf, 0xf8, 0x38, 0xf8, 0x00, 0x00, 0x1f, 0x9e, 0x0f, 
.................... 0xf8, 0xe3, 0xfe, 0x00, 0x00, 0x7f, 0xe3, 0x8f, 0xf9, 0x9f, 0xff, 0xc0, 0x03, 0xff, 0xf9, 0xcf, 
.................... 0x78, 0xff, 0xff, 0xe0, 0x07, 0xff, 0xff, 0x0f, 0x78, 0x1f, 0xff, 0xe0, 0x07, 0xff, 0xfc, 0x1f, 
....................  
.................... 0x7c, 0x07, 0xff, 0xe0, 0x07, 0xff, 0xe0, 0x1f, 0x7c, 0x00, 0xff, 0xe0, 0x07, 0xff, 0x80, 0x1e, 
.................... 0x7c, 0x00, 0x1f, 0xe0, 0x07, 0xfc, 0x00, 0x3e, 0x3e, 0x01, 0xcf, 0xe0, 0x07, 0xf3, 0x80, 0x3e, 
.................... 0x3e, 0x01, 0xff, 0xe0, 0x03, 0xff, 0x80, 0x7c, 0x1f, 0x01, 0xff, 0xe0, 0x03, 0xff, 0xc0, 0x7c, 
.................... 0x1f, 0x01, 0xff, 0xc0, 0x03, 0xff, 0xc0, 0xf8, 0x0f, 0x83, 0xff, 0xc0, 0x01, 0xff, 0xc0, 0xf8, 
.................... 0x0f, 0x83, 0xff, 0xc0, 0x01, 0xff, 0xc1, 0xf0, 0x07, 0xc3, 0xff, 0x80, 0x01, 0xff, 0xe3, 0xf0, 
....................  
.................... 0x03, 0xe3, 0xff, 0x80, 0x01, 0xff, 0xe7, 0xe0, 0x03, 0xf7, 0xff, 0x80, 0x00, 0xff, 0xef, 0xc0, 
.................... 0x01, 0xff, 0xff, 0x80, 0x00, 0xff, 0xff, 0x80, 0x00, 0xff, 0xff, 0x00, 0x00, 0xff, 0xff, 0x80, 
.................... 0x00, 0x7f, 0xff, 0x00, 0x00, 0xff, 0xff, 0x00, 0x00, 0x3f, 0xff, 0x00, 0x00, 0xff, 0xfe, 0x00, 
.................... 0x00, 0x1f, 0xff, 0x00, 0x00, 0x7f, 0xf8, 0x00, 0x00, 0x0f, 0xfe, 0x00, 0x00, 0x7f, 0xf0, 0x00, 
.................... 0x00, 0x03, 0xff, 0x00, 0x00, 0x7f, 0xe0, 0x00, 0x00, 0x00, 0xff, 0xfc, 0x1f, 0xff, 0x80, 0x00, 
....................  
.................... 0x00, 0x00, 0x7f, 0xff, 0xff, 0xfe, 0x00, 0x00, 0x00, 0x00, 0x0f, 0xff, 0xff, 0xf8, 0x00, 0x00, 
.................... 0x00, 0x00, 0x01, 0xff, 0xff, 0xc0, 0x00, 0x00, 0x00, 0x00, 0x00, 0x0f, 0xf0, 0x00, 0x00, 0x00 
.................... }; 
....................  
.................... //xxxxxxxxxxxxxxxxxxxxxxxxxxxxxxxxxxxxxxxxxxxxxxxxxxxxxxxx 
.................... //Ham xuat anh logo spk ra GLCD theo cach truc tiep 
.................... //xxxxxxxxxxxxxxxxxxxxxxxxxxxxxxxxxxxxxxxxxxxxxxxxxxxxxxxx                  
.................... //!void glcd_xuat_anh(int width,int height,int x,int y)  
.................... //!{                                         
.................... //!   unsigned int i=0, j=0, k=0;                                                    
.................... //!   unsigned int16 n=0;                                       
.................... //!   ngang=0;      n=0;                                  
.................... //!   for(j=0;j<height;j++)          //doc                               
.................... //!   {                            
.................... //!      if(j>31) {ngang=8; k=j-32;} 
.................... //!      else k=j;                                               
.................... //!      glcd_command(0x80+(y+k)); //vertical address.  
.................... //!      glcd_command(0x80+((x/16)+ngang));   //horizontal address. 
.................... //!                                                                                 
.................... //!      for(i=0;i<width/16;i++)  
.................... //!      {                                  
.................... //!         glcd_data(logo_spk[n]);    n++;                                                      
.................... //!         glcd_data(logo_spk[n]);    n++;                                    
.................... //!      }                                                         
.................... //!   }                                                           
.................... //!}     
.................... //xxxxxxxxxxxxxxxxxxxxxxxxxxxxxxxxxxxxxxxxxxxxxxxxxxxxxxxx 
.................... //Ham xuat anh logo spk ra GLCD 
.................... //xxxxxxxxxxxxxxxxxxxxxxxxxxxxxxxxxxxxxxxxxxxxxxxxxxxxxxxx                  
.................... //!void glcd_xuat_anh_ok(int width,int height,int x,int y)  
.................... //!{                        
.................... //!   unsigned int i=0, j=0, k=0;                                                    
.................... //!   unsigned int16 n=0;   
.................... //!   ngang=0;                                                  
.................... //!   for(j=0;j<height;j++)  //cot tinh theo pixel                                                                      
.................... //!   {                            
.................... //!      if(j>31) {ngang=8; k=j-32;}     //chuyen vung                        
.................... //!      else k=j;                                                
.................... //!      for(i=0;i<width/16;i++)                                    
.................... //!      {                                  
.................... //!         gdram_vdk.pixel[y+k][x/16+ngang+i].nbyte[1] = logo_spk[n];  
.................... //!         n++;                                                      
.................... //!         gdram_vdk.pixel[y+k][x/16+ngang+i].nbyte[0] = logo_spk[n];  
.................... //!         n++;                                    
.................... //!      }  
.................... //!   }                                                           
.................... //!}                                                                                        
.................... //xxxxxxxxxxxxxxxxxxxxxxxxxxxxxxxxxxxxxxxxxxxxxxxxxxxxxxxx 
.................... //Ham xuat anh logo spkt ra GLCD 
.................... //xxxxxxxxxxxxxxxxxxxxxxxxxxxxxxxxxxxxxxxxxxxxxxxxxxxxxxxx     
.................... void glcd_xuat_anh(int width,int height,int x,int y)  
.................... {                        
....................    unsigned int i=0, j=0, k=0;                                                    
....................    unsigned int16 n=0;  
....................    for(j=0;j<height;j++)                                      
....................    {     
....................       i=0; 
....................       do 
....................       {                                 
....................          for(k=8;k>0;k--) 
....................          {                   
....................             glcd_pixel(x+i,y+j,bit_test(logo_spk[n],(k-1)));  
....................             i++;                       
....................          }                  
....................          n++;            
....................       }while(i<width);   
....................    }  
.................... } 
....................  
.................... void glcd_xuat_anh_c3(int width,int height,int x,int y)  
.................... {                        
....................    unsigned int i=0, j=0, k=0;                                                    
....................    unsigned int16 count=0;  
....................    for(j=0;j<height;j++)                                      
....................    {     
....................       for(;i<width;)  
....................       {  
....................          for(k=8;k>0;k--) 
....................          { 
....................             glcd_pixel(x+i,y+j,bit_test(logo_spk[count],(k-1)));  
....................             i++;                         
....................          }  
....................          count++;            
....................       }                                    
....................       i=0;  
....................    }  
.................... } 
....................         
....................  
....................  
.................... #include<bai_622_glcd_dem_sp_t0_tv.c> 
.................... signed int16 t0_tam,t0,t0_ud ; 
.................... int1 ud = 0 ;                          
.................... int16 lt = 0xffff , lp = 0 ;                                                  
.................... signed int16 g_han ;                              
.................... void lcd_hienthi_up() {                         
....................    lcd_goto_xy(3,18);                     
*
0868:  MOVLW  03
086A:  MOVLB  4
086C:  MOVWF  x4F
086E:  MOVLW  12
0870:  MOVWF  x50
0872:  MOVLB  0
0874:  RCALL  034E
....................    lcd_data("UP  ");                                                
0876:  MOVLW  06
0878:  MOVWF  FF6
087A:  MOVLW  01
087C:  MOVWF  FF7
087E:  RCALL  037A
0880:  GOTO   08CE (RETURN)
....................                                               
.................... }                                                          
.................... void lcd_hienthi_dw() { 
....................    lcd_goto_xy(3,18);              
*
084C:  MOVLW  03
084E:  MOVLB  4
0850:  MOVWF  x4F
0852:  MOVLW  12
0854:  MOVWF  x50
0856:  MOVLB  0
0858:  RCALL  034E
....................    lcd_data("DW  ");                                   
085A:  MOVLW  0C
085C:  MOVWF  FF6
085E:  MOVLW  01
0860:  MOVWF  FF7
0862:  RCALL  037A
0864:  GOTO   08CE (RETURN)
....................  
.................... }                       
.................... void lcd_hienthi_run() {                         
....................    lcd_goto_xy(3,12);                     
*
070A:  MOVLW  03
070C:  MOVLB  4
070E:  MOVWF  x4F
0710:  MOVLW  0C
0712:  MOVWF  x50
0714:  MOVLB  0
0716:  RCALL  034E
....................    lcd_data("RUN  "); 
0718:  MOVLW  12
071A:  MOVWF  FF6
071C:  MOVLW  01
071E:  MOVWF  FF7
0720:  RCALL  037A
0722:  GOTO   0756 (RETURN)
....................                  
.................... }   
.................... void lcd_hienthi_stop() {                         
....................    lcd_goto_xy(3,12);                     
*
07B2:  MOVLW  03
07B4:  MOVLB  4
07B6:  MOVWF  x4F
07B8:  MOVLW  0C
07BA:  MOVWF  x50
07BC:  MOVLB  0
07BE:  RCALL  034E
....................    lcd_data("STOP  "); 
07C0:  MOVLW  18
07C2:  MOVWF  FF6
07C4:  MOVLW  01
07C6:  MOVWF  FF7
07C8:  RCALL  037A
07CA:  GOTO   07F8 (RETURN)
....................  
.................... }   
.................... void tinh_t0_ud() {              
....................    if(ud == 0) t0_ud = t0 ;     
*
091C:  BTFSC  31.3
091E:  BRA    092A
0920:  MOVFF  439,43B
0924:  MOVFF  438,43A
0928:  BRA    093A
....................    else t0_ud = g_han - t0;            
092A:  MOVLB  4
092C:  MOVF   x38,W
092E:  SUBWF  x40,W
0930:  MOVWF  x3A
0932:  MOVF   x39,W
0934:  SUBWFB x41,W
0936:  MOVWF  x3B
0938:  MOVLB  0
093A:  RETURN 0
....................  
.................... }                          
.................... void lcd_hienthi_t0_soto() {                          
....................    tinh_t0_ud() ;                        
*
0B80:  RCALL  091C
....................    lcd_gm_ht_2so_to_xvn(t0_ud,1,14,cx_vn) ;       
0B82:  MOVFF  43B,443
0B86:  MOVFF  43A,442
0B8A:  MOVLW  01
0B8C:  MOVLB  4
0B8E:  MOVWF  x44
0B90:  MOVLW  0E
0B92:  MOVWF  x45
0B94:  MOVLW  01
0B96:  MOVWF  x46
0B98:  MOVLB  0
0B9A:  BRA    0AE6
0B9C:  GOTO   0C7C (RETURN)
.................... }                                     
.................... void lcd_hienthi_gh_soto() {                        
....................    lcd_hien_thi_so_to(g_han/10%10,1,4) ;     
*
050E:  MOVFF  441,448
0512:  MOVFF  440,447
0516:  MOVLB  4
0518:  CLRF   x4A
051A:  MOVLW  0A
051C:  MOVWF  x49
051E:  MOVLB  0
0520:  RCALL  03D6
0522:  MOVFF  02,443
0526:  MOVFF  01,442
052A:  MOVFF  02,448
052E:  MOVFF  01,447
0532:  MOVLB  4
0534:  CLRF   x4A
0536:  MOVLW  0A
0538:  MOVWF  x49
053A:  MOVLB  0
053C:  RCALL  03D6
053E:  MOVFF  00,442
0542:  MOVLB  4
0544:  MOVFF  03,443
0548:  MOVFF  00,44A
054C:  MOVLW  01
054E:  MOVWF  x4B
0550:  MOVLW  04
0552:  MOVWF  x4C
0554:  MOVLB  0
0556:  RCALL  049E
....................    lcd_hien_thi_so_to(g_han%10,1,7) ;               
0558:  MOVFF  441,448
055C:  MOVFF  440,447
0560:  MOVLB  4
0562:  CLRF   x4A
0564:  MOVLW  0A
0566:  MOVWF  x49
0568:  MOVLB  0
056A:  RCALL  03D6
056C:  MOVFF  00,442
0570:  MOVLB  4
0572:  MOVFF  03,443
0576:  MOVFF  00,44A
057A:  MOVLW  01
057C:  MOVWF  x4B
057E:  MOVLW  07
0580:  MOVWF  x4C
0582:  MOVLB  0
0584:  RCALL  049E
0586:  GOTO   0DC2 (RETURN)
....................                                   
.................... } 
.................... void hienthi_4led7doan() {  
....................    tinh_t0_ud() ; 
*
0A36:  RCALL  091C
....................    md4l7d_giaima_2so_vitri_vn(t0_ud,3,cx_vn);                                                          
0A38:  MOVFF  43A,442
0A3C:  MOVLW  03
0A3E:  MOVLB  4
0A40:  MOVWF  x43
0A42:  MOVLW  01
0A44:  MOVWF  x44
0A46:  MOVLB  0
0A48:  RCALL  0968
....................    md4l7d_giaima_2so_vitri_vn(g_han,1,cx_vn);              
0A4A:  MOVFF  440,442
0A4E:  MOVLW  01
0A50:  MOVLB  4
0A52:  MOVWF  x43
0A54:  MOVWF  x44
0A56:  MOVLB  0
0A58:  RCALL  0968
....................    xuat_4led_7doan_4so();                                 
0A5A:  BRA    0A0A
0A5C:  GOTO   0C7A (RETURN)
.................... }                  
.................... void glcd_hthi_t0(usi8 addr){                                     
....................    unsigned int8 chuc, donvi ;       
....................    tinh_t0_ud() ;             
*
0BA0:  RCALL  091C
....................    chuc=t0_ud/10%10; donvi=t0_ud%10; 
0BA2:  MOVFF  43B,448
0BA6:  MOVFF  43A,447
0BAA:  MOVLB  4
0BAC:  CLRF   x4A
0BAE:  MOVLW  0A
0BB0:  MOVWF  x49
0BB2:  MOVLB  0
0BB4:  RCALL  03D6
0BB6:  MOVFF  02,446
0BBA:  MOVFF  01,445
0BBE:  MOVFF  02,448
0BC2:  MOVFF  01,447
0BC6:  MOVLB  4
0BC8:  CLRF   x4A
0BCA:  MOVLW  0A
0BCC:  MOVWF  x49
0BCE:  MOVLB  0
0BD0:  RCALL  03D6
0BD2:  MOVFF  00,443
0BD6:  MOVLB  4
0BD8:  MOVFF  43B,448
0BDC:  MOVFF  43A,447
0BE0:  CLRF   x4A
0BE2:  MOVLW  0A
0BE4:  MOVWF  x49
0BE6:  MOVLB  0
0BE8:  CALL   03D6
0BEC:  MOVFF  00,444
0BF0:  MOVLB  4
....................     
....................    glcd_command(addr); 
0BF2:  MOVFF  442,445
0BF6:  MOVLB  0
0BF8:  RCALL  05C4
....................    if(chuc==0) glcd_data(' '); 
0BFA:  MOVLB  4
0BFC:  MOVF   x43,F
0BFE:  BNZ   0C0C
0C00:  MOVLW  20
0C02:  MOVWF  x46
0C04:  MOVLB  0
0C06:  RCALL  0628
0C08:  BRA    0C18
0C0A:  MOVLB  4
....................    else        glcd_data(chuc+0x30); 
0C0C:  MOVLW  30
0C0E:  ADDWF  x43,W
0C10:  MOVWF  x45
0C12:  MOVWF  x46
0C14:  MOVLB  0
0C16:  RCALL  0628
....................    glcd_data(donvi+0x30); 
0C18:  MOVLW  30
0C1A:  MOVLB  4
0C1C:  ADDWF  x44,W
0C1E:  MOVWF  x45
0C20:  MOVWF  x46
0C22:  MOVLB  0
0C24:  RCALL  0628
0C26:  GOTO   0C86 (RETURN)
....................  
.................... } 
.................... void phim_run() { 
....................    if(phim_run_c2(250) == co_nhan){           
*
0726:  MOVLB  4
0728:  CLRF   x43
072A:  MOVLW  FA
072C:  MOVWF  x42
072E:  MOVLB  0
0730:  BRA    0672
0732:  DECFSZ 01,W
0734:  BRA    075E
....................       setup_timer_0(t0_ext_l_to_h|t0_div_1) ; 
0736:  MOVLW  A8
0738:  MOVWF  FD5
....................       lp=0xffff;                   
073A:  MOVLB  4
073C:  SETF   x3F
073E:  SETF   x3E
....................       xuat_32led_don_2word(lt,lp); 
0740:  MOVFF  43D,443
0744:  MOVFF  43C,442
0748:  MOVFF  43F,445
074C:  MOVFF  43E,444
0750:  MOVLB  0
0752:  RCALL  06E6
....................       lcd_hienthi_run() ;  
0754:  BRA    070A
....................       set_timer0(t0);                  
0756:  MOVFF  439,FD7
075A:  MOVFF  438,FD6
....................                                                          
....................    }                                                      
075E:  GOTO   0E10 (RETURN)
.................... }   
.................... void phim_stop() {                
....................    if(phim_stop_c2(250) == co_nhan){                                
*
07CE:  MOVLB  4
07D0:  CLRF   x43
07D2:  MOVLW  FA
07D4:  MOVWF  x42
07D6:  MOVLB  0
07D8:  BRA    0762
07DA:  DECFSZ 01,W
07DC:  BRA    07F8
....................       setup_timer_0(T0_OFF) ;  
07DE:  CLRF   FD5
....................       lp = 0;  
07E0:  MOVLB  4
07E2:  CLRF   x3F
07E4:  CLRF   x3E
....................       xuat_32led_don_2word(0,lp); 
07E6:  CLRF   x43
07E8:  CLRF   x42
07EA:  MOVFF  43F,445
07EE:  MOVFF  43E,444
07F2:  MOVLB  0
07F4:  RCALL  06E6
....................       lcd_hienthi_stop() ;  
07F6:  BRA    07B2
....................    }                                                            
07F8:  GOTO   0E12 (RETURN)
.................... }                               
.................... void phim_ud() { 
....................    if(phim_ud_c2(250) == co_nhan){ 
*
0884:  MOVLB  4
0886:  CLRF   x43
0888:  MOVLW  FA
088A:  MOVWF  x42
088C:  MOVLB  0
088E:  BRA    07FC
0890:  DECFSZ 01,W
0892:  BRA    08CE
....................       t0 = g_han - t0 ; 
0894:  MOVLB  4
0896:  MOVF   x38,W
0898:  SUBWF  x40,W
089A:  MOVWF  x38
089C:  MOVF   x39,W
089E:  SUBWFB x41,W
08A0:  MOVWF  x39
....................       set_timer0(t0) ;                        
08A2:  MOVFF  439,FD7
08A6:  MOVFF  438,FD6
....................       ud = ~ud ;                           
08AA:  BTG    31.3
....................       lt = ~lt ;      
08AC:  COMF   x3C,F
08AE:  COMF   x3D,F
....................       xuat_32led_don_2word(lt,lp);     
08B0:  MOVFF  43D,443
08B4:  MOVFF  43C,442
08B8:  MOVFF  43F,445
08BC:  MOVFF  43E,444
08C0:  MOVLB  0
08C2:  RCALL  06E6
....................         
....................       if(ud) lcd_hienthi_dw() ;  
08C4:  BTFSS  31.3
08C6:  BRA    08CC
08C8:  BRA    084C
08CA:  BRA    08CE
....................       else   lcd_hienthi_up() ;        
08CC:  BRA    0868
....................        
....................    } 
08CE:  GOTO   0E14 (RETURN)
.................... }                                   
.................... void dem_xung_ngoai_t0() {   
....................          t0 = get_timer0() ;                            
*
0C2A:  MOVF   FD6,W
0C2C:  MOVLB  4
0C2E:  MOVWF  x38
0C30:  MOVFF  FD7,439
....................          if(t0_tam != t0) {            
0C34:  MOVF   x38,W
0C36:  SUBWF  x36,W
0C38:  BNZ   0C40
0C3A:  MOVF   x39,W
0C3C:  SUBWF  x37,W
0C3E:  BZ    0C88
....................          t0_tam = t0 ;            
0C40:  MOVFF  439,437
0C44:  MOVFF  438,436
....................          if(t0 >= g_han) {       
0C48:  BTFSS  x41.7
0C4A:  BRA    0C52
0C4C:  BTFSS  x39.7
0C4E:  BRA    0C64
0C50:  BRA    0C56
0C52:  BTFSC  x39.7
0C54:  BRA    0C76
0C56:  MOVF   x41,W
0C58:  SUBWF  x39,W
0C5A:  BNC   0C76
0C5C:  BNZ   0C64
0C5E:  MOVF   x40,W
0C60:  SUBWF  x38,W
0C62:  BNC   0C76
....................             set_timer0(0) ;      
0C64:  CLRF   FD7
0C66:  CLRF   FD6
....................             buzzer_on_off(300) ;               
0C68:  MOVLW  01
0C6A:  MOVWF  x43
0C6C:  MOVLW  2C
0C6E:  MOVWF  x42
0C70:  MOVLB  0
0C72:  BRA    08F0
0C74:  MOVLB  4
....................          }  
....................          hienthi_4led7doan() ;      
0C76:  MOVLB  0
0C78:  BRA    0A36
....................          lcd_hienthi_t0_soto() ;  
0C7A:  BRA    0B80
....................          glcd_hthi_t0(glcd_addr_line2+7); 
0C7C:  MOVLW  8F
0C7E:  MOVLB  4
0C80:  MOVWF  x42
0C82:  MOVLB  0
0C84:  BRA    0BA0
0C86:  MOVLB  4
....................       } 
0C88:  MOVLB  0
0C8A:  GOTO   0E16 (RETURN)
....................                        
....................  } 
....................                                     
....................  
....................                                              
.................... void main() {                                                
0C8E:  CLRF   FF8
0C90:  BCF    FD0.7
0C92:  BSF    FB8.3
0C94:  MOVLW  08
0C96:  MOVWF  FAF
0C98:  MOVLW  02
0C9A:  MOVWF  FB0
0C9C:  MOVLW  A6
0C9E:  MOVWF  FAC
0CA0:  MOVLW  90
0CA2:  MOVWF  FAB
0CA4:  CLRF   07
0CA6:  CLRF   06
0CA8:  SETF   2A
0CAA:  MOVLW  22
0CAC:  MOVWF  2F
0CAE:  MOVLW  20
0CB0:  MOVWF  30
0CB2:  BCF    31.0
0CB4:  BCF    31.1
0CB6:  BCF    31.2
0CB8:  BCF    31.3
0CBA:  MOVLB  4
0CBC:  SETF   x3D
0CBE:  SETF   x3C
0CC0:  CLRF   x3F
0CC2:  CLRF   x3E
0CC4:  MOVF   FC1,W
0CC6:  ANDLW  C0
0CC8:  IORLW  0F
0CCA:  MOVWF  FC1
0CCC:  MOVLW  07
0CCE:  MOVWF  FB4
0CD0:  BRA    0CF0
0CD2:  DATA 0C,40
0CD4:  DATA 08,FF
0CD6:  DATA 16,80
0CD8:  DATA 30,33
0CDA:  DATA 15,03
0CDC:  DATA 16,02
0CDE:  DATA 21,90
0CE0:  DATA 92,30
0CE2:  DATA 30,10
0CE4:  DATA 08,20
0CE6:  DATA 02,20
0CE8:  DATA 90,96
0CEA:  DATA 00,00
0CEC:  DATA 00,00
0CEE:  DATA 00,00
0CF0:  MOVLW  00
0CF2:  MOVWF  FF8
0CF4:  MOVLW  0C
0CF6:  MOVWF  FF7
0CF8:  MOVLW  D2
0CFA:  MOVWF  FF6
0CFC:  TBLRD*+
0CFE:  MOVF   FF5,W
0D00:  MOVWF  00
0D02:  XORLW  00
0D04:  BZ    0D2C
0D06:  TBLRD*+
0D08:  MOVF   FF5,W
0D0A:  MOVWF  01
0D0C:  BTFSC  FE8.7
0D0E:  BRA    0D1A
0D10:  ANDLW  0F
0D12:  MOVWF  FEA
0D14:  TBLRD*+
0D16:  MOVFF  FF5,FE9
0D1A:  BTFSC  01.6
0D1C:  TBLRD*+
0D1E:  BTFSS  01.6
0D20:  TBLRD*+
0D22:  MOVFF  FF5,FEE
0D26:  DCFSNZ 00,F
0D28:  BRA    0CFC
0D2A:  BRA    0D1E
0D2C:  CLRF   FF8
....................    set_up_port();                  
0D2E:  MOVLB  0
0D30:  GOTO   0236
....................    lcd_setup();                    
0D34:  GOTO   02F2
....................    lcd_goto_xy(0,0); 
0D38:  MOVLB  4
0D3A:  CLRF   x4F
0D3C:  CLRF   x50
0D3E:  MOVLB  0
0D40:  CALL   034E
....................    lcd_data("Dem san pham dung T0") ;   
0D44:  MOVLW  20
0D46:  MOVWF  FF6
0D48:  MOVLW  01
0D4A:  MOVWF  FF7
0D4C:  CALL   037A
....................    lcd_goto_xy(1,0);                            
0D50:  MOVLW  01
0D52:  MOVLB  4
0D54:  MOVWF  x4F
0D56:  CLRF   x50
0D58:  MOVLB  0
0D5A:  CALL   034E
....................    lcd_data("GHD") ; 
0D5E:  MOVLW  36
0D60:  MOVWF  FF6
0D62:  MOVLW  01
0D64:  MOVWF  FF7
0D66:  CALL   037A
....................    lcd_goto_xy(1,10); 
0D6A:  MOVLW  01
0D6C:  MOVLB  4
0D6E:  MOVWF  x4F
0D70:  MOVLW  0A
0D72:  MOVWF  x50
0D74:  MOVLB  0
0D76:  CALL   034E
....................    lcd_data("GTD") ; 
0D7A:  MOVLW  3A
0D7C:  MOVWF  FF6
0D7E:  MOVLW  01
0D80:  MOVWF  FF7
0D82:  CALL   037A
....................     
....................    lcd_goto_xy(3,0); 
0D86:  MOVLW  03
0D88:  MOVLB  4
0D8A:  MOVWF  x4F
0D8C:  CLRF   x50
0D8E:  MOVLB  0
0D90:  CALL   034E
....................    lcd_data("Trang thai: Stop  UP"); 
0D94:  MOVLW  3E
0D96:  MOVWF  FF6
0D98:  MOVLW  01
0D9A:  MOVWF  FF7
0D9C:  CALL   037A
....................    lcd_khoi_tao_cgram_so_to();    
0DA0:  GOTO   039A
....................     
....................    setup_timer_0(t0_off); 
0DA4:  CLRF   FD5
....................    set_timer0(0); 
0DA6:  CLRF   FD7
0DA8:  CLRF   FD6
....................    t0_tam=1;                 
0DAA:  MOVLB  4
0DAC:  CLRF   x37
0DAE:  MOVLW  01
0DB0:  MOVWF  x36
....................    lt=0x00ff;        
0DB2:  CLRF   x3D
0DB4:  SETF   x3C
....................    g_han=50; 
0DB6:  CLRF   x41
0DB8:  MOVLW  32
0DBA:  MOVWF  x40
....................    lcd_hienthi_gh_soto();                                    
0DBC:  MOVLB  0
0DBE:  GOTO   050E
....................     
....................    glcd_setup(glcd_text_mode); 
0DC2:  MOVLW  30
0DC4:  MOVLB  4
0DC6:  MOVWF  x42
0DC8:  MOVLB  0
0DCA:  BRA    05CE
....................    glcd_command(glcd_addr_line0); 
0DCC:  MOVLW  80
0DCE:  MOVLB  4
0DD0:  MOVWF  x45
0DD2:  MOVLB  0
0DD4:  CALL   05C4
....................    glcd_data("Dem San Pham T0"); 
0DD8:  MOVLW  54
0DDA:  MOVWF  FF6
0DDC:  MOVLW  01
0DDE:  MOVWF  FF7
0DE0:  RCALL  0632
....................    glcd_command(glcd_addr_line1); 
0DE2:  MOVLW  90
0DE4:  MOVLB  4
0DE6:  MOVWF  x45
0DE8:  MOVLB  0
0DEA:  CALL   05C4
....................    glcd_data("Gioi han dem: 50"); 
0DEE:  MOVLW  64
0DF0:  MOVWF  FF6
0DF2:  MOVLW  01
0DF4:  MOVWF  FF7
0DF6:  RCALL  0632
....................    glcd_command(glcd_addr_line2); 
0DF8:  MOVLW  88
0DFA:  MOVLB  4
0DFC:  MOVWF  x45
0DFE:  MOVLB  0
0E00:  CALL   05C4
....................    glcd_data("Gia tri dem :  ") ;      
0E04:  MOVLW  76
0E06:  MOVWF  FF6
0E08:  MOVLW  01
0E0A:  MOVWF  FF7
0E0C:  RCALL  0632
....................    
.................... while(true){ 
....................    phim_run() ;  
0E0E:  BRA    0726
....................    phim_stop() ;  
0E10:  BRA    07CE
....................    phim_ud() ;  
0E12:  BRA    0884
....................    dem_xung_ngoai_t0() ;  
0E14:  BRA    0C2A
0E16:  BRA    0E0E
....................     
....................  
.................... } 
....................     
....................     
....................  
.................... } 
0E18:  SLEEP 

Configuration Fuses:
   Word  1: CC07   PLL12 CPUDIV1 NOUSBDIV HS FCMEN IESO
   Word  2: 1E3E   PUT BROWNOUT BORV21 VREGEN NOWDT WDT32768
   Word  3: 8700   CCP2C1 PBADEN LPT1OSC MCLR
   Word  4: 00A1   STVREN NOLVP ICSP2 NOXINST NODEBUG
   Word  5: C00F   NOPROTECT NOCPB NOCPD
   Word  6: E00F   NOWRT NOWRTC NOWRTB NOWRTD
   Word  7: 400F   NOEBTR NOEBTRB
